gplink-2.2.37 (Jan 22 2024)
Listing File Generated: 2026-2-2  18:01:05
 
 
Address  Value    Disassembly              Source
-------  -----    -----------              ------
                                           ;--------------------------------------------------------
                                           ; external declarations
                                           ;--------------------------------------------------------
                                           	extern	__mullong
                                           	extern	__divulong
                                           	extern	_INDF0bits
                                           	extern	_INDF1bits
                                           	extern	_INDF2bits
                                           	extern	_HIBYTEbits
                                           	extern	_FSR0bits
                                           	extern	_FSR1bits
                                           	extern	_PCLbits
                                           	extern	_PFLAGbits
                                           	extern	_MCRbits
                                           	extern	_INDF3bits
                                           	extern	_INTEbits
                                           	extern	_INTFbits
                                           	extern	_DRVCRbits
                                           	extern	_P0KBCRbits
                                           	extern	_P1KBCRbits
                                           	extern	_P2KBCRbits
                                           	extern	_IOP0bits
                                           	extern	_OEP0bits
                                           	extern	_PUP0bits
                                           	extern	_PDP0bits
                                           	extern	_IOP1bits
                                           	extern	_OEP1bits
                                           	extern	_PUP1bits
                                           	extern	_PDP1bits
                                           	extern	_T0CRbits
                                           	extern	_T0CNTbits
                                           	extern	_T0LOADbits
                                           	extern	_T0DATAbits
                                           	extern	_T1CRbits
                                           	extern	_T1CNTbits
                                           	extern	_T1LOADbits
                                           	extern	_T1DATAbits
                                           	extern	_T2CRbits
                                           	extern	_T2CNTbits
                                           	extern	_T2LOADbits
                                           	extern	_T2DATAbits
                                           	extern	_T3CRbits
                                           	extern	_T3CNTbits
                                           	extern	_T3LOADbits
                                           	extern	_PWM0DRbits
                                           	extern	_PWM1DRbits
                                           	extern	_PWM2DRbits
                                           	extern	_PWMCR0bits
                                           	extern	_PWMCR1bits
                                           	extern	_OSCMRbits
                                           	extern	_LVDCRbits
                                           	extern	_ADCR0bits
                                           	extern	_ADCR1bits
                                           	extern	_ADCR2bits
                                           	extern	_OSADJCRbits
                                           	extern	_ADRHbits
                                           	extern	_ADRLbits
                                           	extern	_P0ADCRbits
                                           	extern	_P1ADCRbits
                                           	extern	_IOP2bits
                                           	extern	_OEP2bits
                                           	extern	_PUP2bits
                                           	extern	_PDP2bits
                                           	extern	_PMODbits
                                           	extern	_PWMCR3bits
                                           	extern	_PWMCR2bits
                                           	extern	_PFRCCRbits
                                           	extern	_PFRCCALbits
                                           	extern	_EECRbits
                                           	extern	_EEPRbits
                                           	extern	_EEARbits
                                           	extern	_EEDRHbits
                                           	extern	_EEDRLbits
                                           	extern	_DBGCRbits
                                           	extern	_DBGPRbits
                                           	extern	_HIRCCALbits
                                           	extern	_INDF0
                                           	extern	_INDF1
                                           	extern	_INDF2
                                           	extern	_HIBYTE
                                           	extern	_FSR0
                                           	extern	_FSR1
                                           	extern	_PCL
                                           	extern	_PFLAG
                                           	extern	_MCR
                                           	extern	_INDF3
                                           	extern	_INTE
                                           	extern	_INTF
                                           	extern	_DRVCR
                                           	extern	_P0KBCR
                                           	extern	_P1KBCR
                                           	extern	_P2KBCR
                                           	extern	_IOP0
                                           	extern	_OEP0
                                           	extern	_PUP0
                                           	extern	_PDP0
                                           	extern	_IOP1
                                           	extern	_OEP1
                                           	extern	_PUP1
                                           	extern	_PDP1
                                           	extern	_T0CR
                                           	extern	_T0CNT
                                           	extern	_T0LOAD
                                           	extern	_T0DATA
                                           	extern	_T1CR
                                           	extern	_T1CNT
                                           	extern	_T1LOAD
                                           	extern	_T1DATA
                                           	extern	_T2CR
                                           	extern	_T2CNT
                                           	extern	_T2LOAD
                                           	extern	_T2DATA
                                           	extern	_T3CR
                                           	extern	_T3CNT
                                           	extern	_T3LOAD
                                           	extern	_PWM0DR
                                           	extern	_PWM1DR
                                           	extern	_PWM2DR
                                           	extern	_PWMCR0
                                           	extern	_PWMCR1
                                           	extern	_OSCMR
                                           	extern	_LVDCR
                                           	extern	_ADCR0
                                           	extern	_ADCR1
                                           	extern	_ADCR2
                                           	extern	_OSADJCR
                                           	extern	_ADRH
                                           	extern	_ADRL
                                           	extern	_P0ADCR
                                           	extern	_P1ADCR
                                           	extern	_IOP2
                                           	extern	_OEP2
                                           	extern	_PUP2
                                           	extern	_PDP2
                                           	extern	_PMOD
                                           	extern	_PWMCR3
                                           	extern	_PWMCR2
                                           	extern	_PFRCCR
                                           	extern	_PFRCCAL
                                           	extern	_EECR
                                           	extern	_EEPR
                                           	extern	_EEAR
                                           	extern	_EEDRH
                                           	extern	_EEDRL
                                           	extern	_DBGCR
                                           	extern	_DBGPR
                                           	extern	_HIRCCAL
                                           ;--------------------------------------------------------
                                           ; global declarations
                                           ;--------------------------------------------------------
                                           	global	_delay_ms
                                           	global	_CLR_RAM
                                           	global	_adc_config
                                           	global	_adc_sel_pin
                                           	global	_adc_get_val
                                           	global	_adc_get_val_once
                                           	global	_Sys_Init
                                           	global	_key_scan
                                           	global	_key_event_handle
                                           	global	_adc_scan_handle
                                           	global	_turn_dir_scan_handle
                                           	global	_shutdown_scan_handle
                                           	global	_low_power_scan_handle
                                           	global	_main
                                           	global	_int_isr
                                           	global	_key_event
                                           	global	_mode_flag
                                           	global	_sub_mode_status
                                           	global	_key_press_flag
                                           	global	_i
                                           	global	_adc_val
                                           	global	_turn_dir_ms_cnt
                                           	global	_shut_down_ms_cnt
                                           	global	_adc_bat_val
                                           	global	_adc_charging_val
                                           	global	_max_pwm_val
                                           	global	_last_pwm_val
                                           	global	_tmp_val
                                           	global	_tmp_val_l
                                           	global	_tmp_val_cnt
                                           	global	_tmp_bat_val
                                           	global	_over_charging_cnt
                                           	global	_full_charge_cnt
                                           	global	_abuf
                                           	global	_statusbuf
                                           	global	_flag1
                                           	global	_flag2
                                           	global	_flag3
                                           
                                           	global STK06
                                           	global STK05
                                           	global STK04
                                           	global STK03
                                           	global STK02
                                           	global STK01
                                           	global STK00
                                           
                                           sharebank udata_ovr 0x0000
                                           STK06	res 1
                                           STK05	res 1
                                           STK04	res 1
                                           STK03	res 1
                                           STK02	res 1
                                           STK01	res 1
                                           STK00	res 1
                                           
                                           ;--------------------------------------------------------
                                           ; global definitions
                                           ;--------------------------------------------------------
                                           UD_MC32F7361_0	udata
                                           _key_event	res	1
                                           
                                           UD_MC32F7361_1	udata
                                           _mode_flag	res	1
                                           
                                           UD_MC32F7361_2	udata
                                           _sub_mode_status	res	1
                                           
                                           UD_MC32F7361_3	udata
                                           _key_press_flag	res	1
                                           
                                           UD_MC32F7361_4	udata
                                           _i	res	1
                                           
                                           UD_MC32F7361_5	udata
                                           _adc_val	res	2
                                           
                                           UD_MC32F7361_6	udata
                                           _turn_dir_ms_cnt	res	4
                                           
                                           UD_MC32F7361_7	udata
                                           _shut_down_ms_cnt	res	4
                                           
                                           UD_MC32F7361_8	udata
                                           _adc_bat_val	res	4
                                           
                                           UD_MC32F7361_9	udata
                                           _adc_charging_val	res	2
                                           
                                           UD_MC32F7361_10	udata
                                           _max_pwm_val	res	4
                                           
                                           UD_MC32F7361_11	udata
                                           _last_pwm_val	res	2
                                           
                                           UD_MC32F7361_12	udata
                                           _tmp_val	res	2
                                           
                                           UD_MC32F7361_13	udata
                                           _tmp_val_l	res	16
                                           
                                           UD_MC32F7361_14	udata
                                           _tmp_val_cnt	res	1
                                           
                                           UD_MC32F7361_15	udata
                                           _tmp_bat_val	res	2
                                           
                                           UD_MC32F7361_16	udata
                                           _over_charging_cnt	res	1
                                           
                                           UD_MC32F7361_17	udata
                                           _full_charge_cnt	res	1
                                           
                                           UD_MC32F7361_18	udata
                                           _abuf	res	1
                                           
                                           UD_MC32F7361_19	udata
                                           _statusbuf	res	1
                                           
                                           UD_MC32F7361_20	udata
                                           _flag1	res	1
                                           
                                           UD_MC32F7361_21	udata
                                           _flag2	res	1
                                           
                                           UD_MC32F7361_22	udata
                                           _flag3	res	1
                                           
                                           ;--------------------------------------------------------
                                           ; absolute symbol definitions
                                           ;--------------------------------------------------------
                                           ;--------------------------------------------------------
                                           ; compiler-defined variables
                                           ;--------------------------------------------------------
                                           UDL_MC32F7361_0	udata
                                           r0x104F	res	1
                                           r0x104E	res	1
                                           r0x1050	res	1
                                           r0x1051	res	1
                                           r0x1052	res	1
                                           r0x1053	res	1
                                           r0x1054	res	1
                                           r0x1055	res	1
                                           r0x1056	res	1
                                           r0x1057	res	1
                                           r0x1058	res	1
                                           r0x105A	res	1
                                           r0x1059	res	1
                                           r0x105B	res	1
                                           r0x105C	res	1
                                           r0x1067	res	1
                                           r0x105D	res	1
                                           r0x105E	res	1
                                           r0x1060	res	1
                                           r0x105F	res	1
                                           r0x1061	res	1
                                           r0x1062	res	1
                                           r0x1063	res	1
                                           r0x1064	res	1
                                           r0x1065	res	1
                                           r0x1066	res	1
                                           r0x1068	res	1
                                           r0x1069	res	1
                                           _key_scan_cur_key_id_65536_28	res	1
                                           _key_scan_filter_cnt_65536_28	res	1
                                           _key_scan_filter_key_id_65536_28	res	1
                                           _key_scan_press_cnt_65536_28	res	1
                                           _key_scan_flag_is_key_mode_hold_65536_28	res	1
                                           _key_scan_last_key_id_65536_28	res	1
                                           _adc_scan_handle_cnt_65536_77	res	1
                                           _adc_scan_handle_need_charge_cnt_65536_77	res	1
                                           _int_isr___1ms_cnt_196608_209	res	1
                                           _int_isr_key_scan_cnt_327680_211	res	1
                                           _int_isr_cnt_327680_213	res	2
                                           _int_isr_low_bat_cnt_327680_221	res	2
                                           _int_isr_shut_down_bat_cnt_327680_225	res	2
                                           _int_isr_update_current_time_cnt_327680_229	res	2
                                           _int_isr_cnt_327680_233	res	2
                                           _led_state	res	1
                                           _pwm_counter	res	2
                                           _breath_counter	res	1
                                           _pwm_duty	res	1
                                           _breath_direction	res	1
                                           ;--------------------------------------------------------
                                           ; initialized data
                                           ;--------------------------------------------------------
                                           
                                           ;@Allocation info for local variables in function 'delay_ms'
                                           ;@delay_ms delay_ms                  Allocated to registers ;size:2
                                           ;@delay_ms INDF0bits                 Allocated to registers ;size:1
                                           ;@delay_ms INDF1bits                 Allocated to registers ;size:1
                                           ;@delay_ms INDF2bits                 Allocated to registers ;size:1
                                           ;@delay_ms HIBYTEbits                Allocated to registers ;size:1
                                           ;@delay_ms FSR0bits                  Allocated to registers ;size:1
                                           ;@delay_ms FSR1bits                  Allocated to registers ;size:1
                                           ;@delay_ms PCLbits                   Allocated to registers ;size:1
                                           ;@delay_ms PFLAGbits                 Allocated to registers ;size:1
                                           ;@delay_ms MCRbits                   Allocated to registers ;size:1
                                           ;@delay_ms INDF3bits                 Allocated to registers ;size:1
                                           ;@delay_ms INTEbits                  Allocated to registers ;size:1
                                           ;@delay_ms INTFbits                  Allocated to registers ;size:1
                                           ;@delay_ms DRVCRbits                 Allocated to registers ;size:1
                                           ;@delay_ms P0KBCRbits                Allocated to registers ;size:1
                                           ;@delay_ms P1KBCRbits                Allocated to registers ;size:1
                                           ;@delay_ms P2KBCRbits                Allocated to registers ;size:1
                                           ;@delay_ms IOP0bits                  Allocated to registers ;size:1
                                           ;@delay_ms OEP0bits                  Allocated to registers ;size:1
                                           ;@delay_ms PUP0bits                  Allocated to registers ;size:1
                                           ;@delay_ms PDP0bits                  Allocated to registers ;size:1
                                           ;@delay_ms IOP1bits                  Allocated to registers ;size:1
                                           ;@delay_ms OEP1bits                  Allocated to registers ;size:1
                                           ;@delay_ms PUP1bits                  Allocated to registers ;size:1
                                           ;@delay_ms PDP1bits                  Allocated to registers ;size:1
                                           ;@delay_ms T0CRbits                  Allocated to registers ;size:1
                                           ;@delay_ms T0CNTbits                 Allocated to registers ;size:1
                                           ;@delay_ms T0LOADbits                Allocated to registers ;size:1
                                           ;@delay_ms T0DATAbits                Allocated to registers ;size:1
                                           ;@delay_ms T1CRbits                  Allocated to registers ;size:1
                                           ;@delay_ms T1CNTbits                 Allocated to registers ;size:1
                                           ;@delay_ms T1LOADbits                Allocated to registers ;size:1
                                           ;@delay_ms T1DATAbits                Allocated to registers ;size:1
                                           ;@delay_ms T2CRbits                  Allocated to registers ;size:1
                                           ;@delay_ms T2CNTbits                 Allocated to registers ;size:1
                                           ;@delay_ms T2LOADbits                Allocated to registers ;size:1
                                           ;@delay_ms T2DATAbits                Allocated to registers ;size:1
                                           ;@delay_ms T3CRbits                  Allocated to registers ;size:1
                                           ;@delay_ms T3CNTbits                 Allocated to registers ;size:1
                                           ;@delay_ms T3LOADbits                Allocated to registers ;size:1
                                           ;@delay_ms PWM0DRbits                Allocated to registers ;size:1
                                           ;@delay_ms PWM1DRbits                Allocated to registers ;size:1
                                           ;@delay_ms PWM2DRbits                Allocated to registers ;size:1
                                           ;@delay_ms PWMCR0bits                Allocated to registers ;size:1
                                           ;@delay_ms PWMCR1bits                Allocated to registers ;size:1
                                           ;@delay_ms OSCMRbits                 Allocated to registers ;size:1
                                           ;@delay_ms LVDCRbits                 Allocated to registers ;size:1
                                           ;@delay_ms ADCR0bits                 Allocated to registers ;size:1
                                           ;@delay_ms ADCR1bits                 Allocated to registers ;size:1
                                           ;@delay_ms ADCR2bits                 Allocated to registers ;size:1
                                           ;@delay_ms OSADJCRbits               Allocated to registers ;size:1
                                           ;@delay_ms ADRHbits                  Allocated to registers ;size:1
                                           ;@delay_ms ADRLbits                  Allocated to registers ;size:1
                                           ;@delay_ms P0ADCRbits                Allocated to registers ;size:1
                                           ;@delay_ms P1ADCRbits                Allocated to registers ;size:1
                                           ;@delay_ms IOP2bits                  Allocated to registers ;size:1
                                           ;@delay_ms OEP2bits                  Allocated to registers ;size:1
                                           ;@delay_ms PUP2bits                  Allocated to registers ;size:1
                                           ;@delay_ms PDP2bits                  Allocated to registers ;size:1
                                           ;@delay_ms PMODbits                  Allocated to registers ;size:1
                                           ;@delay_ms PWMCR3bits                Allocated to registers ;size:1
                                           ;@delay_ms PWMCR2bits                Allocated to registers ;size:1
                                           ;@delay_ms PFRCCRbits                Allocated to registers ;size:1
                                           ;@delay_ms PFRCCALbits               Allocated to registers ;size:1
                                           ;@delay_ms EECRbits                  Allocated to registers ;size:1
                                           ;@delay_ms EEPRbits                  Allocated to registers ;size:1
                                           ;@delay_ms EEARbits                  Allocated to registers ;size:1
                                           ;@delay_ms EEDRHbits                 Allocated to registers ;size:1
                                           ;@delay_ms EEDRLbits                 Allocated to registers ;size:1
                                           ;@delay_ms DBGCRbits                 Allocated to registers ;size:1
                                           ;@delay_ms DBGPRbits                 Allocated to registers ;size:1
                                           ;@delay_ms HIRCCALbits               Allocated to registers ;size:1
                                           ;@delay_ms key_event                 Allocated to registers ;size:1
                                           ;@delay_ms mode_flag                 Allocated to registers ;size:1
                                           ;@delay_ms sub_mode_status           Allocated to registers ;size:1
                                           ;@delay_ms key_press_flag            Allocated to registers ;size:1
                                           ;@delay_ms i                         Allocated to registers ;size:1
                                           ;@delay_ms adc_val                   Allocated to registers ;size:2
                                           ;@delay_ms turn_dir_ms_cnt           Allocated to registers ;size:4
                                           ;@delay_ms shut_down_ms_cnt          Allocated to registers ;size:4
                                           ;@delay_ms adc_bat_val               Allocated to registers ;size:4
                                           ;@delay_ms adc_charging_val          Allocated to registers ;size:2
                                           ;@delay_ms max_pwm_val               Allocated to registers ;size:4
                                           ;@delay_ms last_pwm_val              Allocated to registers ;size:2
                                           ;@delay_ms tmp_val                   Allocated to registers ;size:2
                                           ;@delay_ms tmp_val_l                 Allocated to registers ;size:16
                                           ;@delay_ms tmp_val_cnt               Allocated to registers ;size:1
                                           ;@delay_ms tmp_bat_val               Allocated to registers ;size:2
                                           ;@delay_ms over_charging_cnt         Allocated to registers ;size:1
                                           ;@delay_ms full_charge_cnt           Allocated to registers ;size:1
                                           ;@delay_ms pwm_duty                  Allocated to registers ;size:1
                                           ;@delay_ms pwm_counter               Allocated to registers ;size:2
                                           ;@delay_ms breath_counter            Allocated to registers ;size:1
                                           ;@delay_ms breath_direction          Allocated to registers ;size:1
                                           ;@delay_ms led_state                 Allocated to registers ;size:1
                                           ;@delay_ms abuf                      Allocated to registers ;size:1
                                           ;@delay_ms statusbuf                 Allocated to registers ;size:1
                                           ;@delay_ms flag1                     Allocated to registers ;size:1
                                           ;@delay_ms flag2                     Allocated to registers ;size:1
                                           ;@delay_ms flag3                     Allocated to registers ;size:1
                                           ;@delay_ms xms                       Allocated to registers ;size:2
                                           ;@delay_ms i                         Allocated to registers r0x1050 r0x1051 ;size:2
                                           ;@delay_ms INDF0                     Allocated to registers ;size:1
                                           ;@delay_ms INDF1                     Allocated to registers ;size:1
                                           ;@delay_ms INDF2                     Allocated to registers ;size:1
                                           ;@delay_ms HIBYTE                    Allocated to registers ;size:1
                                           ;@delay_ms FSR0                      Allocated to registers ;size:1
                                           ;@delay_ms FSR1                      Allocated to registers ;size:1
                                           ;@delay_ms PCL                       Allocated to registers ;size:1
                                           ;@delay_ms PFLAG                     Allocated to registers ;size:1
                                           ;@delay_ms MCR                       Allocated to registers ;size:1
                                           ;@delay_ms INDF3                     Allocated to registers ;size:1
                                           ;@delay_ms INTE                      Allocated to registers ;size:1
                                           ;@delay_ms INTF                      Allocated to registers ;size:1
                                           ;@delay_ms DRVCR                     Allocated to registers ;size:1
                                           ;@delay_ms P0KBCR                    Allocated to registers ;size:1
                                           ;@delay_ms P1KBCR                    Allocated to registers ;size:1
                                           ;@delay_ms P2KBCR                    Allocated to registers ;size:1
                                           ;@delay_ms IOP0                      Allocated to registers ;size:1
                                           ;@delay_ms OEP0                      Allocated to registers ;size:1
                                           ;@delay_ms PUP0                      Allocated to registers ;size:1
                                           ;@delay_ms PDP0                      Allocated to registers ;size:1
                                           ;@delay_ms IOP1                      Allocated to registers ;size:1
                                           ;@delay_ms OEP1                      Allocated to registers ;size:1
                                           ;@delay_ms PUP1                      Allocated to registers ;size:1
                                           ;@delay_ms PDP1                      Allocated to registers ;size:1
                                           ;@delay_ms T0CR                      Allocated to registers ;size:1
                                           ;@delay_ms T0CNT                     Allocated to registers ;size:1
                                           ;@delay_ms T0LOAD                    Allocated to registers ;size:1
                                           ;@delay_ms T0DATA                    Allocated to registers ;size:1
                                           ;@delay_ms T1CR                      Allocated to registers ;size:1
                                           ;@delay_ms T1CNT                     Allocated to registers ;size:1
                                           ;@delay_ms T1LOAD                    Allocated to registers ;size:1
                                           ;@delay_ms T1DATA                    Allocated to registers ;size:1
                                           ;@delay_ms T2CR                      Allocated to registers ;size:1
                                           ;@delay_ms T2CNT                     Allocated to registers ;size:1
                                           ;@delay_ms T2LOAD                    Allocated to registers ;size:1
                                           ;@delay_ms T2DATA                    Allocated to registers ;size:1
                                           ;@delay_ms T3CR                      Allocated to registers ;size:1
                                           ;@delay_ms T3CNT                     Allocated to registers ;size:1
                                           ;@delay_ms T3LOAD                    Allocated to registers ;size:1
                                           ;@delay_ms PWM0DR                    Allocated to registers ;size:1
                                           ;@delay_ms PWM1DR                    Allocated to registers ;size:1
                                           ;@delay_ms PWM2DR                    Allocated to registers ;size:1
                                           ;@delay_ms PWMCR0                    Allocated to registers ;size:1
                                           ;@delay_ms PWMCR1                    Allocated to registers ;size:1
                                           ;@delay_ms OSCMR                     Allocated to registers ;size:1
                                           ;@delay_ms LVDCR                     Allocated to registers ;size:1
                                           ;@delay_ms ADCR0                     Allocated to registers ;size:1
                                           ;@delay_ms ADCR1                     Allocated to registers ;size:1
                                           ;@delay_ms ADCR2                     Allocated to registers ;size:1
                                           ;@delay_ms OSADJCR                   Allocated to registers ;size:1
                                           ;@delay_ms ADRH                      Allocated to registers ;size:1
                                           ;@delay_ms ADRL                      Allocated to registers ;size:1
                                           ;@delay_ms P0ADCR                    Allocated to registers ;size:1
                                           ;@delay_ms P1ADCR                    Allocated to registers ;size:1
                                           ;@delay_ms IOP2                      Allocated to registers ;size:1
                                           ;@delay_ms OEP2                      Allocated to registers ;size:1
                                           ;@delay_ms PUP2                      Allocated to registers ;size:1
                                           ;@delay_ms PDP2                      Allocated to registers ;size:1
                                           ;@delay_ms PMOD                      Allocated to registers ;size:1
                                           ;@delay_ms PWMCR3                    Allocated to registers ;size:1
                                           ;@delay_ms PWMCR2                    Allocated to registers ;size:1
                                           ;@delay_ms PFRCCR                    Allocated to registers ;size:1
                                           ;@delay_ms PFRCCAL                   Allocated to registers ;size:1
                                           ;@delay_ms EECR                      Allocated to registers ;size:1
                                           ;@delay_ms EEPR                      Allocated to registers ;size:1
                                           ;@delay_ms EEAR                      Allocated to registers ;size:1
                                           ;@delay_ms EEDRH                     Allocated to registers ;size:1
                                           ;@delay_ms EEDRL                     Allocated to registers ;size:1
                                           ;@delay_ms DBGCR                     Allocated to registers ;size:1
                                           ;@delay_ms DBGPR                     Allocated to registers ;size:1
                                           ;@delay_ms HIRCCAL                   Allocated to registers ;size:1
                                           ;@end Allocation info for local variables in function 'delay_ms';
                                           ;@Allocation info for local variables in function 'CLR_RAM'
                                           ;@end Allocation info for local variables in function 'CLR_RAM';
                                           ;@Allocation info for local variables in function 'adc_config'
                                           ;@end Allocation info for local variables in function 'adc_config';
                                           ;@Allocation info for local variables in function 'adc_sel_pin'
                                           ;@adc_sel_pin adc_pin                   Allocated to registers r0x1054 ;size:1
                                           ;@end Allocation info for local variables in function 'adc_sel_pin';
                                           ;@Allocation info for local variables in function 'adc_get_val'
                                           ;@adc_get_val i                         Allocated to registers r0x1056 ;size:1
                                           ;@adc_get_val g_temp_value              Allocated to registers r0x1057 r0x1058 ;size:2
                                           ;@adc_get_val g_tmpbuff                 Allocated to registers r0x1052 r0x1053 r0x1059 r0x105B ;size:4
                                           ;@adc_get_val g_adcmax                  Allocated to registers r0x1052 r0x1053 ;size:2
                                           ;@adc_get_val g_adcmin                  Allocated to registers r0x1054 r0x1055 ;size:2
                                           ;@end Allocation info for local variables in function 'adc_get_val';
                                           ;@Allocation info for local variables in function 'adc_get_val_once'
                                           ;@adc_get_val_once g_temp_value              Allocated to registers r0x1051 r0x1050 ;size:2
                                           ;@end Allocation info for local variables in function 'adc_get_val_once';
                                           ;@Allocation info for local variables in function 'Sys_Init'
                                           ;@end Allocation info for local variables in function 'Sys_Init';
                                           ;@Allocation info for local variables in function 'key_scan'
                                           ;@key_scan last_key_id               Allocated to registers ;size:1
                                           ;@key_scan press_cnt                 Allocated to registers ;size:1
                                           ;@key_scan filter_cnt                Allocated to registers ;size:1
                                           ;@key_scan filter_key_id             Allocated to registers ;size:1
                                           ;@key_scan cur_key_id                Allocated to registers ;size:1
                                           ;@key_scan flag_is_key_mode_hold     Allocated to registers ;size:1
                                           ;@end Allocation info for local variables in function 'key_scan';
                                           ;@Allocation info for local variables in function 'key_scan'
                                           ;@key_scan last_key_id               Allocated to registers ;size:1
                                           ;@key_scan press_cnt                 Allocated to registers ;size:1
                                           ;@key_scan filter_cnt                Allocated to registers ;size:1
                                           ;@key_scan filter_key_id             Allocated to registers ;size:1
                                           ;@key_scan cur_key_id                Allocated to registers ;size:1
                                           ;@key_scan flag_is_key_mode_hold     Allocated to registers ;size:1
                                           ;@end Allocation info for local variables in function 'key_scan';
                                           ;@Allocation info for local variables in function 'key_event_handle'
                                           ;@end Allocation info for local variables in function 'key_event_handle';
                                           ;@Allocation info for local variables in function 'adc_scan_handle'
                                           ;@adc_scan_handle cnt                       Allocated to registers ;size:1
                                           ;@adc_scan_handle need_charge_cnt           Allocated to registers ;size:1
                                           ;@end Allocation info for local variables in function 'adc_scan_handle';
                                           ;@Allocation info for local variables in function 'turn_dir_scan_handle'
                                           ;@end Allocation info for local variables in function 'turn_dir_scan_handle';
                                           ;@Allocation info for local variables in function 'shutdown_scan_handle'
                                           ;@end Allocation info for local variables in function 'shutdown_scan_handle';
                                           ;@Allocation info for local variables in function 'low_power_scan_handle'
                                           ;@end Allocation info for local variables in function 'low_power_scan_handle';
                                           ;@Allocation info for local variables in function 'main'
                                           ;@main i                         Allocated to registers r0x105D r0x105E ;size:2
                                           ;@end Allocation info for local variables in function 'main';
                                           ;@Allocation info for local variables in function 'int_isr'
                                           ;@int_isr __1ms_cnt                 Allocated to registers ;size:1
                                           ;@int_isr key_scan_cnt              Allocated to registers ;size:1
                                           ;@int_isr cnt                       Allocated to registers ;size:2
                                           ;@int_isr low_bat_cnt               Allocated to registers ;size:2
                                           ;@int_isr shut_down_bat_cnt         Allocated to registers ;size:2
                                           ;@int_isr update_current_time_cnt   Allocated to registers ;size:2
                                           ;@int_isr cnt                       Allocated to registers ;size:2
                                           ;@end Allocation info for local variables in function 'int_isr';
                                           ;@Allocation info for local variables in function 'int_isr'
                                           ;@int_isr __1ms_cnt                 Allocated to registers ;size:1
                                           ;@int_isr key_scan_cnt              Allocated to registers ;size:1
                                           ;@int_isr cnt                       Allocated to registers ;size:2
                                           ;@int_isr low_bat_cnt               Allocated to registers ;size:2
                                           ;@int_isr shut_down_bat_cnt         Allocated to registers ;size:2
                                           ;@int_isr update_current_time_cnt   Allocated to registers ;size:2
                                           ;@int_isr cnt                       Allocated to registers ;size:2
                                           ;@end Allocation info for local variables in function 'int_isr';
                                           
                                           ;--------------------------------------------------------
                                           ; overlayable items in internal ram 
                                           ;--------------------------------------------------------
                                           ;	udata_ovr
                                           ;--------------------------------------------------------
                                           ; reset vector 
                                           ;--------------------------------------------------------
                                           STARTUP	code 0x0000
000000   a0e6     goto    0xe6             	goto	_main
                                           ;--------------------------------------------------------
                                           ; interrupt and initialization code
                                           ;--------------------------------------------------------
                                           c_interrupt	code	0x8
                                           __sdcc_interrupt
                                           ;***
                                           ;  pBlock Stats: dbName = I
                                           ;***
                                           ;entry:  _int_isr	;Function start
                                           ; 0 exit points
                                           ;functions called:
                                           ;   _key_scan
                                           ;   _key_scan
                                           ;2 compiler assigned registers:
                                           ;   r0x1068
                                           ;   r0x1069
                                           ;; Starting pCode block
                                           _int_isr	;Function start
                                           ; 0 exit points
                                           ;	.line	1097; "MC32F7361.c"	__endasm;
                                           	;
000008   5690     movra   0x90             	movra	_abuf;
000009   4587     swapar  0x187            	swapar	_PFLAG;
00000a   5691     movra   0x91             	movra	_statusbuf;
                                           	
                                           ;	.line	1107; "MC32F7361.c"	if (T3IF & T3IE)
00000b   7621     clrr    0x21             	CLRR	r0x1068
00000c   ff8b     jbclr   0x18b, 0x7       	JBCLR	_INTFbits,7
00000d   6621     incr    0x21             	INCR	r0x1068
00000e   7622     clrr    0x22             	CLRR	r0x1069
00000f   ff8a     jbclr   0x18a, 0x7       	JBCLR	_INTEbits,7
000010   6622     incr    0x22             	INCR	r0x1069
000011   5822     movar   0x22             	MOVAR	r0x1069
000012   7a21     andra   0x21             	ANDRA	r0x1068
000013   3c00     movai   0                	MOVAI	0x00
000014   5c21     orar    0x21             	ORAR	r0x1068
000015   f587     jbclr   0x187, 0x2       	JBCLR	PFLAG,2
000016   a0e1     goto    0xe1             	GOTO	_01048_DS_
                                           ;	.line	1111; "MC32F7361.c"	__1ms_cnt++;
000017   662b     incr    0x2b             	INCR	_int_isr___1ms_cnt_196608_209
                                           ;;unsigned compare: left < lit(0xA=10), size=1
                                           ;	.line	1112; "MC32F7361.c"	if (__1ms_cnt >= 10)
000018   3c0a     movai   0xa              	MOVAI	0x0a
000019   482b     rsubar  0x2b             	RSUBAR	_int_isr___1ms_cnt_196608_209
00001a   e187     jbset   0x187, 0         	JBSET	PFLAG,0
00001b   a09d     goto    0x9d             	GOTO	_01019_DS_
                                           ;;genSkipc:3291: created from rifx:013B5EFC
                                           ;	.line	1114; "MC32F7361.c"	__1ms_cnt = 0;
00001c   762b     clrr    0x2b             	CLRR	_int_isr___1ms_cnt_196608_209
                                           ;	.line	1118; "MC32F7361.c"	key_scan_cnt++;
00001d   662c     incr    0x2c             	INCR	_int_isr_key_scan_cnt_327680_211
                                           ;;unsigned compare: left < lit(0xA=10), size=1
                                           ;	.line	1119; "MC32F7361.c"	if (key_scan_cnt >= 10)
00001e   3c0a     movai   0xa              	MOVAI	0x0a
00001f   482c     rsubar  0x2c             	RSUBAR	_int_isr_key_scan_cnt_327680_211
000020   e187     jbset   0x187, 0         	JBSET	PFLAG,0
000021   a024     goto    0x24             	GOTO	_00987_DS_
                                           ;;genSkipc:3291: created from rifx:013B5EFC
                                           ;	.line	1121; "MC32F7361.c"	key_scan_cnt = 0;
000022   762c     clrr    0x2c             	CLRR	_int_isr_key_scan_cnt_327680_211
                                           ;	.line	1122; "MC32F7361.c"	key_scan();
000023   84f9     call    0x4f9            	CALL	_key_scan
                                           _00987_DS_
                                           ;	.line	1128; "MC32F7361.c"	if (sub_mode_status == SUB_MODE_1_BEGIN)
000024   588a     movar   0x8a             	MOVAR	_sub_mode_status
000025   3901     xorai   0x1              	XORAI	0x01
000026   e587     jbset   0x187, 0x2       	JBSET	PFLAG,2
000027   a02f     goto    0x2f             	GOTO	_00997_DS_
                                           ;	.line	1130; "MC32F7361.c"	cnt = 0;
000028   762d     clrr    0x2d             	CLRR	_int_isr_cnt_327680_213
000029   762e     clrr    0x2e             	CLRR	(_int_isr_cnt_327680_213 + 1)
                                           ;	.line	1131; "MC32F7361.c"	HEATING_ON();
00002a   c594     bset    0x194, 0x2       	BSET	_IOP1bits,2
                                           ;	.line	1132; "MC32F7361.c"	PWM1EC = 0;
00002b   dd9c     bclr    0x19c, 0x6       	BCLR	_T1CRbits,6
                                           ;	.line	1133; "MC32F7361.c"	sub_mode_status = SUB_MODE_1_HANDLING;
00002c   3c02     movai   0x2              	MOVAI	0x02
00002d   568a     movra   0x8a             	MOVRA	_sub_mode_status
00002e   a046     goto    0x46             	GOTO	_00998_DS_
                                           _00997_DS_
                                           ;	.line	1135; "MC32F7361.c"	else if (sub_mode_status == SUB_MODE_1_HANDLING)
00002f   588a     movar   0x8a             	MOVAR	_sub_mode_status
000030   3902     xorai   0x2              	XORAI	0x02
000031   e587     jbset   0x187, 0x2       	JBSET	PFLAG,2
000032   a044     goto    0x44             	GOTO	_00994_DS_
                                           ;	.line	1137; "MC32F7361.c"	cnt++;
000033   662d     incr    0x2d             	INCR	_int_isr_cnt_327680_213
000034   f587     jbclr   0x187, 0x2       	JBCLR	PFLAG,2
000035   662e     incr    0x2e             	INCR	(_int_isr_cnt_327680_213 + 1)
                                           ;;unsigned compare: left < lit(0x3E8=1000), size=2
                                           ;	.line	1138; "MC32F7361.c"	if (cnt >= 1000)
000036   3c03     movai   0x3              	MOVAI	0x03
000037   482e     rsubar  0x2e             	RSUBAR	(_int_isr_cnt_327680_213 + 1)
000038   e587     jbset   0x187, 0x2       	JBSET	PFLAG,2
000039   a03c     goto    0x3c             	GOTO	_01145_DS_
00003a   3ce8     movai   0xe8             	MOVAI	0xe8
00003b   482d     rsubar  0x2d             	RSUBAR	_int_isr_cnt_327680_213
                                           _01145_DS_
00003c   e187     jbset   0x187, 0         	JBSET	PFLAG,0
00003d   a046     goto    0x46             	GOTO	_00998_DS_
                                           ;;genSkipc:3291: created from rifx:013B5EFC
                                           ;	.line	1140; "MC32F7361.c"	cnt = 0;
00003e   762d     clrr    0x2d             	CLRR	_int_isr_cnt_327680_213
00003f   762e     clrr    0x2e             	CLRR	(_int_isr_cnt_327680_213 + 1)
                                           ;	.line	1141; "MC32F7361.c"	PWM0EC = 1;
000040   cd98     bset    0x198, 0x6       	BSET	_T0CRbits,6
                                           ;	.line	1142; "MC32F7361.c"	sub_mode_status = SUB_MODE_1_END;
000041   3c03     movai   0x3              	MOVAI	0x03
000042   568a     movra   0x8a             	MOVRA	_sub_mode_status
000043   a046     goto    0x46             	GOTO	_00998_DS_
                                           _00994_DS_
                                           ;	.line	1147; "MC32F7361.c"	cnt = 0;
000044   762d     clrr    0x2d             	CLRR	_int_isr_cnt_327680_213
000045   762e     clrr    0x2e             	CLRR	(_int_isr_cnt_327680_213 + 1)
                                           _00998_DS_
                                           ;	.line	1151; "MC32F7361.c"	if (FLAG_IS_DEVICE_OPEN)
000046   e092     jbset   0x92, 0          	JBSET	_flag1,0
000047   a056     goto    0x56             	GOTO	_01000_DS_
                                           ;	.line	1153; "MC32F7361.c"	turn_dir_ms_cnt++;  //  turn_dir_scan_handle() 
000048   666e     incr    0x6e             	INCR	_turn_dir_ms_cnt
000049   f587     jbclr   0x187, 0x2       	JBCLR	PFLAG,2
00004a   666f     incr    0x6f             	INCR	(_turn_dir_ms_cnt + 1)
00004b   f587     jbclr   0x187, 0x2       	JBCLR	PFLAG,2
00004c   6670     incr    0x70             	INCR	(_turn_dir_ms_cnt + 2)
00004d   f587     jbclr   0x187, 0x2       	JBCLR	PFLAG,2
00004e   6671     incr    0x71             	INCR	(_turn_dir_ms_cnt + 3)
                                           ;	.line	1154; "MC32F7361.c"	shut_down_ms_cnt++; //  shutdown_scan_handle() 
00004f   6672     incr    0x72             	INCR	_shut_down_ms_cnt
000050   f587     jbclr   0x187, 0x2       	JBCLR	PFLAG,2
000051   6673     incr    0x73             	INCR	(_shut_down_ms_cnt + 1)
000052   f587     jbclr   0x187, 0x2       	JBCLR	PFLAG,2
000053   6674     incr    0x74             	INCR	(_shut_down_ms_cnt + 2)
000054   f587     jbclr   0x187, 0x2       	JBCLR	PFLAG,2
000055   6675     incr    0x75             	INCR	(_shut_down_ms_cnt + 3)
                                           _01000_DS_
                                           ;	.line	1160; "MC32F7361.c"	if (flag_maybe_low_battery)
000056   e494     jbset   0x94, 0x2        	JBSET	_flag3,2
000057   a067     goto    0x67             	GOTO	_01004_DS_
                                           ;	.line	1162; "MC32F7361.c"	low_bat_cnt++;
000058   662f     incr    0x2f             	INCR	_int_isr_low_bat_cnt_327680_221
000059   f587     jbclr   0x187, 0x2       	JBCLR	PFLAG,2
00005a   6630     incr    0x30             	INCR	(_int_isr_low_bat_cnt_327680_221 + 1)
                                           ;;unsigned compare: left < lit(0x1388=5000), size=2
                                           ;	.line	1163; "MC32F7361.c"	if (low_bat_cnt >= 5000) // xx ms
00005b   3c13     movai   0x13             	MOVAI	0x13
00005c   4830     rsubar  0x30             	RSUBAR	(_int_isr_low_bat_cnt_327680_221 + 1)
00005d   e587     jbset   0x187, 0x2       	JBSET	PFLAG,2
00005e   a061     goto    0x61             	GOTO	_01146_DS_
00005f   3c88     movai   0x88             	MOVAI	0x88
000060   482f     rsubar  0x2f             	RSUBAR	_int_isr_low_bat_cnt_327680_221
                                           _01146_DS_
000061   e187     jbset   0x187, 0         	JBSET	PFLAG,0
000062   a069     goto    0x69             	GOTO	_01005_DS_
                                           ;;genSkipc:3291: created from rifx:013B5EFC
                                           ;	.line	1165; "MC32F7361.c"	low_bat_cnt = 0;
000063   762f     clrr    0x2f             	CLRR	_int_isr_low_bat_cnt_327680_221
000064   7630     clrr    0x30             	CLRR	(_int_isr_low_bat_cnt_327680_221 + 1)
                                           ;	.line	1166; "MC32F7361.c"	flag_is_low_battery = 1;
000065   c493     bset    0x93, 0x2        	BSET	_flag2,2
000066   a069     goto    0x69             	GOTO	_01005_DS_
                                           _01004_DS_
                                           ;	.line	1171; "MC32F7361.c"	low_bat_cnt = 0;
000067   762f     clrr    0x2f             	CLRR	_int_isr_low_bat_cnt_327680_221
000068   7630     clrr    0x30             	CLRR	(_int_isr_low_bat_cnt_327680_221 + 1)
                                           _01005_DS_
                                           ;	.line	1177; "MC32F7361.c"	if (flag_tim_scan_maybe_shut_down)
000069   e694     jbset   0x94, 0x3        	JBSET	_flag3,3
00006a   a07a     goto    0x7a             	GOTO	_01009_DS_
                                           ;	.line	1179; "MC32F7361.c"	shut_down_bat_cnt++;
00006b   6631     incr    0x31             	INCR	_int_isr_shut_down_bat_cnt_327680_225
00006c   f587     jbclr   0x187, 0x2       	JBCLR	PFLAG,2
00006d   6632     incr    0x32             	INCR	(_int_isr_shut_down_bat_cnt_327680_225 + 1)
                                           ;;unsigned compare: left < lit(0x3E8=1000), size=2
                                           ;	.line	1180; "MC32F7361.c"	if (shut_down_bat_cnt >= 1000) // xx ms
00006e   3c03     movai   0x3              	MOVAI	0x03
00006f   4832     rsubar  0x32             	RSUBAR	(_int_isr_shut_down_bat_cnt_327680_225 + 1)
000070   e587     jbset   0x187, 0x2       	JBSET	PFLAG,2
000071   a074     goto    0x74             	GOTO	_01147_DS_
000072   3ce8     movai   0xe8             	MOVAI	0xe8
000073   4831     rsubar  0x31             	RSUBAR	_int_isr_shut_down_bat_cnt_327680_225
                                           _01147_DS_
000074   e187     jbset   0x187, 0         	JBSET	PFLAG,0
000075   a07d     goto    0x7d             	GOTO	_01010_DS_
                                           ;;genSkipc:3291: created from rifx:013B5EFC
                                           ;	.line	1182; "MC32F7361.c"	shut_down_bat_cnt = 0;
000076   7631     clrr    0x31             	CLRR	_int_isr_shut_down_bat_cnt_327680_225
000077   7632     clrr    0x32             	CLRR	(_int_isr_shut_down_bat_cnt_327680_225 + 1)
                                           ;	.line	1183; "MC32F7361.c"	flag_is_needed_shut_down = 1;
000078   c894     bset    0x94, 0x4        	BSET	_flag3,4
000079   a07d     goto    0x7d             	GOTO	_01010_DS_
                                           _01009_DS_
                                           ;	.line	1188; "MC32F7361.c"	shut_down_bat_cnt = 0;
00007a   7631     clrr    0x31             	CLRR	_int_isr_shut_down_bat_cnt_327680_225
00007b   7632     clrr    0x32             	CLRR	(_int_isr_shut_down_bat_cnt_327680_225 + 1)
                                           ;	.line	1189; "MC32F7361.c"	flag_is_needed_shut_down = 0;
00007c   d894     bclr    0x94, 0x4        	BCLR	_flag3,4
                                           _01010_DS_
                                           ;	.line	1195; "MC32F7361.c"	if (FLAG_IS_IN_CHARGING)
00007d   e492     jbset   0x92, 0x2        	JBSET	_flag1,2
00007e   a08e     goto    0x8e             	GOTO	_01014_DS_
                                           ;	.line	1197; "MC32F7361.c"	update_current_time_cnt++;
00007f   6633     incr    0x33             	INCR	_int_isr_update_current_time_cnt_327680_229
000080   f587     jbclr   0x187, 0x2       	JBCLR	PFLAG,2
000081   6634     incr    0x34             	INCR	(_int_isr_update_current_time_cnt_327680_229 + 1)
                                           ;;unsigned compare: left < lit(0x1F4=500), size=2
                                           ;	.line	1198; "MC32F7361.c"	if (update_current_time_cnt >= 500)
000082   3c01     movai   0x1              	MOVAI	0x01
000083   4834     rsubar  0x34             	RSUBAR	(_int_isr_update_current_time_cnt_327680_229 + 1)
000084   e587     jbset   0x187, 0x2       	JBSET	PFLAG,2
000085   a088     goto    0x88             	GOTO	_01148_DS_
000086   3cf4     movai   0xf4             	MOVAI	0xf4
000087   4833     rsubar  0x33             	RSUBAR	_int_isr_update_current_time_cnt_327680_229
                                           _01148_DS_
000088   e187     jbset   0x187, 0         	JBSET	PFLAG,0
000089   a08f     goto    0x8f             	GOTO	_01015_DS_
                                           ;;genSkipc:3291: created from rifx:013B5EFC
                                           ;	.line	1200; "MC32F7361.c"	update_current_time_cnt = 0;
00008a   7633     clrr    0x33             	CLRR	_int_isr_update_current_time_cnt_327680_229
00008b   7634     clrr    0x34             	CLRR	(_int_isr_update_current_time_cnt_327680_229 + 1)
                                           ;	.line	1201; "MC32F7361.c"	flag_is_update_current = 1;
00008c   ca94     bset    0x94, 0x5        	BSET	_flag3,5
00008d   a08f     goto    0x8f             	GOTO	_01015_DS_
                                           _01014_DS_
                                           ;	.line	1206; "MC32F7361.c"	FLAG_IS_IN_CHARGING = 0;
00008e   d492     bclr    0x92, 0x2        	BCLR	_flag1,2
                                           _01015_DS_
                                           ;	.line	1213; "MC32F7361.c"	cnt++;
00008f   6635     incr    0x35             	INCR	_int_isr_cnt_327680_233
000090   f587     jbclr   0x187, 0x2       	JBCLR	PFLAG,2
000091   6636     incr    0x36             	INCR	(_int_isr_cnt_327680_233 + 1)
                                           ;;swapping arguments (AOP_TYPEs 1/3)
                                           ;;unsigned compare: left >= lit(0x1F5=501), size=2
                                           ;	.line	1214; "MC32F7361.c"	if (cnt > 500)
000092   3c01     movai   0x1              	MOVAI	0x01
000093   4836     rsubar  0x36             	RSUBAR	(_int_isr_cnt_327680_233 + 1)
000094   e587     jbset   0x187, 0x2       	JBSET	PFLAG,2
000095   a098     goto    0x98             	GOTO	_01149_DS_
000096   3cf5     movai   0xf5             	MOVAI	0xf5
000097   4835     rsubar  0x35             	RSUBAR	_int_isr_cnt_327680_233
                                           _01149_DS_
000098   e187     jbset   0x187, 0         	JBSET	PFLAG,0
000099   a09d     goto    0x9d             	GOTO	_01019_DS_
                                           ;;genSkipc:3291: created from rifx:013B5EFC
                                           ;	.line	1216; "MC32F7361.c"	cnt = 0;
00009a   7635     clrr    0x35             	CLRR	_int_isr_cnt_327680_233
00009b   7636     clrr    0x36             	CLRR	(_int_isr_cnt_327680_233 + 1)
                                           ;	.line	1217; "MC32F7361.c"	flag_is_adjust_pwm_time_comes = 1;
00009c   cc94     bset    0x94, 0x6        	BSET	_flag3,6
                                           _01019_DS_
                                           ;	.line	1224; "MC32F7361.c"	if (FLAG_IS_IN_CHARGING && 0 == FLAG_BAT_IS_FULL)
00009d   e492     jbset   0x92, 0x2        	JBSET	_flag1,2
00009e   a0e0     goto    0xe0             	GOTO	_01045_DS_
00009f   fa92     jbclr   0x92, 0x5        	JBCLR	_flag1,5
0000a0   a0e0     goto    0xe0             	GOTO	_01045_DS_
                                           ;	.line	1227; "MC32F7361.c"	if (pwm_counter < pwm_duty)
0000a1   583b     movar   0x3b             	MOVAR	_pwm_duty
0000a2   5621     movra   0x21             	MOVRA	r0x1068
0000a3   7622     clrr    0x22             	CLRR	r0x1069
0000a4   3c00     movai   0                	MOVAI	0x00
0000a5   4839     rsubar  0x39             	RSUBAR	(_pwm_counter + 1)
0000a6   e587     jbset   0x187, 0x2       	JBSET	PFLAG,2
0000a7   a0aa     goto    0xaa             	GOTO	_01150_DS_
0000a8   5821     movar   0x21             	MOVAR	r0x1068
0000a9   4838     rsubar  0x38             	RSUBAR	_pwm_counter
                                           _01150_DS_
0000aa   f187     jbclr   0x187, 0         	JBCLR	PFLAG,0
0000ab   a0af     goto    0xaf             	GOTO	_01021_DS_
                                           ;;genSkipc:3291: created from rifx:013B5EFC
                                           ;	.line	1229; "MC32F7361.c"	led_state = 1; // LED
0000ac   3c01     movai   0x1              	MOVAI	0x01
0000ad   5637     movra   0x37             	MOVRA	_led_state
0000ae   a0b0     goto    0xb0             	GOTO	_01022_DS_
                                           _01021_DS_
                                           ;	.line	1233; "MC32F7361.c"	led_state = 0; // LED
0000af   7637     clrr    0x37             	CLRR	_led_state
                                           _01022_DS_
                                           ;	.line	1237; "MC32F7361.c"	pwm_counter++;
0000b0   6638     incr    0x38             	INCR	_pwm_counter
0000b1   f587     jbclr   0x187, 0x2       	JBCLR	PFLAG,2
0000b2   6639     incr    0x39             	INCR	(_pwm_counter + 1)
                                           ;;unsigned compare: left < lit(0x64=100), size=2
                                           ;	.line	1238; "MC32F7361.c"	if (pwm_counter >= PWM_MAX_LEVEL)
0000b3   3c00     movai   0                	MOVAI	0x00
0000b4   4839     rsubar  0x39             	RSUBAR	(_pwm_counter + 1)
0000b5   e587     jbset   0x187, 0x2       	JBSET	PFLAG,2
0000b6   a0b9     goto    0xb9             	GOTO	_01151_DS_
0000b7   3c64     movai   0x64             	MOVAI	0x64
0000b8   4838     rsubar  0x38             	RSUBAR	_pwm_counter
                                           _01151_DS_
0000b9   e187     jbset   0x187, 0         	JBSET	PFLAG,0
0000ba   a0bd     goto    0xbd             	GOTO	_01024_DS_
                                           ;;genSkipc:3291: created from rifx:013B5EFC
                                           ;	.line	1240; "MC32F7361.c"	pwm_counter = 0;
0000bb   7638     clrr    0x38             	CLRR	_pwm_counter
0000bc   7639     clrr    0x39             	CLRR	(_pwm_counter + 1)
                                           _01024_DS_
                                           ;	.line	1244; "MC32F7361.c"	breath_counter++;
0000bd   663a     incr    0x3a             	INCR	_breath_counter
                                           ;;unsigned compare: left < lit(0xC8=200), size=1
                                           ;	.line	1245; "MC32F7361.c"	if (breath_counter >= BREATH_PERIOD)
0000be   3cc8     movai   0xc8             	MOVAI	0xc8
0000bf   483a     rsubar  0x3a             	RSUBAR	_breath_counter
0000c0   e187     jbset   0x187, 0         	JBSET	PFLAG,0
0000c1   a0d9     goto    0xd9             	GOTO	_01034_DS_
                                           ;;genSkipc:3291: created from rifx:013B5EFC
                                           ;	.line	1247; "MC32F7361.c"	breath_counter = 0;
0000c2   763a     clrr    0x3a             	CLRR	_breath_counter
                                           ;	.line	1250; "MC32F7361.c"	if (breath_direction == 0)
0000c3   3c00     movai   0                	MOVAI	0x00
0000c4   5c3c     orar    0x3c             	ORAR	_breath_direction
0000c5   e587     jbset   0x187, 0x2       	JBSET	PFLAG,2
0000c6   a0d1     goto    0xd1             	GOTO	_01031_DS_
                                           ;	.line	1253; "MC32F7361.c"	pwm_duty++;
0000c7   663b     incr    0x3b             	INCR	_pwm_duty
                                           ;;unsigned compare: left < lit(0x64=100), size=1
                                           ;	.line	1254; "MC32F7361.c"	if (pwm_duty >= PWM_MAX_LEVEL)
0000c8   3c64     movai   0x64             	MOVAI	0x64
0000c9   483b     rsubar  0x3b             	RSUBAR	_pwm_duty
0000ca   e187     jbset   0x187, 0         	JBSET	PFLAG,0
0000cb   a0d9     goto    0xd9             	GOTO	_01034_DS_
                                           ;;genSkipc:3291: created from rifx:013B5EFC
                                           ;	.line	1256; "MC32F7361.c"	pwm_duty = PWM_MAX_LEVEL;
0000cc   3c64     movai   0x64             	MOVAI	0x64
0000cd   563b     movra   0x3b             	MOVRA	_pwm_duty
                                           ;	.line	1257; "MC32F7361.c"	breath_direction = 1; // 
0000ce   3c01     movai   0x1              	MOVAI	0x01
0000cf   563c     movra   0x3c             	MOVRA	_breath_direction
0000d0   a0d9     goto    0xd9             	GOTO	_01034_DS_
                                           _01031_DS_
                                           ;	.line	1263; "MC32F7361.c"	if (pwm_duty > 0)
0000d1   3c00     movai   0                	MOVAI	0x00
0000d2   5c3b     orar    0x3b             	ORAR	_pwm_duty
0000d3   f587     jbclr   0x187, 0x2       	JBCLR	PFLAG,2
0000d4   a0d7     goto    0xd7             	GOTO	_01028_DS_
                                           ;	.line	1265; "MC32F7361.c"	pwm_duty--;
0000d5   6e3b     decr    0x3b             	DECR	_pwm_duty
0000d6   a0d9     goto    0xd9             	GOTO	_01034_DS_
                                           _01028_DS_
                                           ;	.line	1269; "MC32F7361.c"	pwm_duty = 0;
0000d7   763b     clrr    0x3b             	CLRR	_pwm_duty
                                           ;	.line	1270; "MC32F7361.c"	breath_direction = 0; // 
0000d8   763c     clrr    0x3c             	CLRR	_breath_direction
                                           _01034_DS_
                                           ;	.line	1277; "MC32F7361.c"	if (led_state)
0000d9   3c00     movai   0                	MOVAI	0x00
0000da   5c37     orar    0x37             	ORAR	_led_state
0000db   f587     jbclr   0x187, 0x2       	JBCLR	PFLAG,2
0000dc   a0df     goto    0xdf             	GOTO	_01038_DS_
                                           ;	.line	1280; "MC32F7361.c"	LED_RED_ON();
0000dd   d994     bclr    0x194, 0x4       	BCLR	_IOP1bits,4
0000de   a0e0     goto    0xe0             	GOTO	_01045_DS_
                                           _01038_DS_
                                           ;	.line	1285; "MC32F7361.c"	LED_RED_OFF();
0000df   c994     bset    0x194, 0x4       	BSET	_IOP1bits,4
                                           _01045_DS_
                                           ;	.line	1289; "MC32F7361.c"	T3IF = 0;
0000e0   df8b     bclr    0x18b, 0x7       	BCLR	_INTFbits,7
                                           _01048_DS_
                                           ;	.line	1299; "MC32F7361.c"	__endasm;
                                           	;
0000e1   4491     swapar  0x91             	swapar	_statusbuf;
0000e2   5787     movra   0x187            	movra	_PFLAG;
0000e3   4690     swapr   0x90             	swapr	_abuf;
0000e4   4490     swapar  0x90             	swapar	_abuf;
                                           	
                                           END_OF_INTERRUPT
                                           ;	.line	1300; "MC32F7361.c"	}
0000e5   000d     retie                    	RETIE	
                                           
                                           ;--------------------------------------------------------
                                           ; code
                                           ;--------------------------------------------------------
                                           code_MC32F7361	code
                                           ;***
                                           ;  pBlock Stats: dbName = M
                                           ;***
                                           ;entry:  _main	;Function start
                                           ; 2 exit points
                                           ;has an exit
                                           ;functions called:
                                           ;   _Sys_Init
                                           ;   _adc_sel_pin
                                           ;   _adc_get_val
                                           ;   _delay_ms
                                           ;   _delay_ms
                                           ;   _key_event_handle
                                           ;   _adc_scan_handle
                                           ;   _turn_dir_scan_handle
                                           ;   _shutdown_scan_handle
                                           ;   __mullong
                                           ;   __divulong
                                           ;   __mullong
                                           ;   __mullong
                                           ;   __divulong
                                           ;   __divulong
                                           ;   _delay_ms
                                           ;   _delay_ms
                                           ;   _key_event_handle
                                           ;   _delay_ms
                                           ;   _key_event_handle
                                           ;   _delay_ms
                                           ;   _low_power_scan_handle
                                           ;   _Sys_Init
                                           ;   _adc_sel_pin
                                           ;   _adc_get_val
                                           ;   _delay_ms
                                           ;   _delay_ms
                                           ;   _key_event_handle
                                           ;   _adc_scan_handle
                                           ;   _turn_dir_scan_handle
                                           ;   _shutdown_scan_handle
                                           ;   __mullong
                                           ;   __divulong
                                           ;   __mullong
                                           ;   __mullong
                                           ;   __divulong
                                           ;   __divulong
                                           ;   _delay_ms
                                           ;   _delay_ms
                                           ;   _key_event_handle
                                           ;   _delay_ms
                                           ;   _key_event_handle
                                           ;   _delay_ms
                                           ;   _low_power_scan_handle
                                           ;17 compiler assigned registers:
                                           ;   STK00
                                           ;   r0x105D
                                           ;   r0x105E
                                           ;   STK06
                                           ;   STK05
                                           ;   STK04
                                           ;   STK03
                                           ;   STK02
                                           ;   STK01
                                           ;   r0x105F
                                           ;   r0x1060
                                           ;   r0x1061
                                           ;   r0x1062
                                           ;   r0x1063
                                           ;   r0x1064
                                           ;   r0x1065
                                           ;   r0x1066
                                           ;; Starting pCode block
                                           _main	;Function start
                                           ; 2 exit points
                                           ;	.line	814; "MC32F7361.c"	Sys_Init();
0000e6   855d     call    0x55d            	CALL	_Sys_Init
                                           ;	.line	819; "MC32F7361.c"	PWM2EC = 1; // pwm
0000e7   cda0     bset    0x1a0, 0x6       	BSET	_T2CRbits,6
                                           ;	.line	820; "MC32F7361.c"	T2DATA = 100;
0000e8   3c64     movai   0x64             	MOVAI	0x64
0000e9   57a3     movra   0x1a3            	MOVRA	_T2DATA
                                           ;	.line	821; "MC32F7361.c"	adc_sel_pin(ADC_PIN_P02_AN1); // 
0000ea   3c02     movai   0x2              	MOVAI	0x02
0000eb   8656     call    0x656            	CALL	_adc_sel_pin
                                           ;	.line	822; "MC32F7361.c"	for (i = 0; i < 10; i++)      // 55ms4.8ms
0000ec   768c     clrr    0x8c             	CLRR	_i
                                           ;;unsigned compare: left < lit(0xA=10), size=1
                                           _00853_DS_
0000ed   3c0a     movai   0xa              	MOVAI	0x0a
0000ee   488c     rsubar  0x8c             	RSUBAR	_i
0000ef   f187     jbclr   0x187, 0         	JBCLR	PFLAG,0
0000f0   a101     goto    0x101            	GOTO	_00792_DS_
                                           ;;genSkipc:3291: created from rifx:013B5EFC
                                           ;	.line	824; "MC32F7361.c"	adc_val = adc_get_val();
0000f1   85b9     call    0x5b9            	CALL	_adc_get_val
0000f2   567f     movra   0x7f             	MOVRA	(_adc_val + 1)
0000f3   5806     movar   0x6              	MOVAR	STK00
0000f4   567e     movra   0x7e             	MOVRA	_adc_val
                                           ;;unsigned compare: left < lit(0xF52=3922), size=2
                                           ;	.line	825; "MC32F7361.c"	if (adc_val >= ADCDETECT_BAT_FULL + ADCDETECT_BAT_NULL_EX)
0000f5   3c0f     movai   0xf              	MOVAI	0x0f
0000f6   487f     rsubar  0x7f             	RSUBAR	(_adc_val + 1)
0000f7   e587     jbset   0x187, 0x2       	JBSET	PFLAG,2
0000f8   a0fb     goto    0xfb             	GOTO	_00970_DS_
0000f9   3c52     movai   0x52             	MOVAI	0x52
0000fa   487e     rsubar  0x7e             	RSUBAR	_adc_val
                                           _00970_DS_
0000fb   e187     jbset   0x187, 0         	JBSET	PFLAG,0
0000fc   a0ff     goto    0xff             	GOTO	_00854_DS_
                                           ;;genSkipc:3291: created from rifx:013B5EFC
                                           ;	.line	827; "MC32F7361.c"	flag_bat_is_empty = 1;
0000fd   ce94     bset    0x94, 0x7        	BSET	_flag3,7
                                           ;	.line	828; "MC32F7361.c"	FLAG_DURING_CHARGING_BAT_IS_NULL = 1; // 
0000fe   ce92     bset    0x92, 0x7        	BSET	_flag1,7
                                           _00854_DS_
                                           ;	.line	822; "MC32F7361.c"	for (i = 0; i < 10; i++)      // 55ms4.8ms
0000ff   668c     incr    0x8c             	INCR	_i
000100   a0ed     goto    0xed             	GOTO	_00853_DS_
                                           _00792_DS_
                                           ;	.line	831; "MC32F7361.c"	PWM2EC = 0; // pwm
000101   dda0     bclr    0x1a0, 0x6       	BCLR	_T2CRbits,6
                                           ;	.line	832; "MC32F7361.c"	T2DATA = 0;
000102   77a3     clrr    0x1a3            	CLRR	_T2DATA
                                           _00850_DS_
                                           ;	.line	838; "MC32F7361.c"	if (flag_bat_is_empty)
000103   ee94     jbset   0x94, 0x7        	JBSET	_flag3,7
000104   a110     goto    0x110            	GOTO	_00800_DS_
                                           ;	.line	842; "MC32F7361.c"	LED_RED_ON();
000105   d994     bclr    0x194, 0x4       	BCLR	_IOP1bits,4
                                           ;	.line	843; "MC32F7361.c"	delay_ms(500);
000106   3cf4     movai   0xf4             	MOVAI	0xf4
000107   5606     movra   0x6              	MOVRA	STK00
000108   3c01     movai   0x1              	MOVAI	0x01
000109   8685     call    0x685            	CALL	_delay_ms
                                           ;	.line	845; "MC32F7361.c"	LED_RED_OFF();
00010a   c994     bset    0x194, 0x4       	BSET	_IOP1bits,4
                                           ;	.line	846; "MC32F7361.c"	delay_ms(500);
00010b   3cf4     movai   0xf4             	MOVAI	0xf4
00010c   5606     movra   0x6              	MOVRA	STK00
00010d   3c01     movai   0x1              	MOVAI	0x01
00010e   8685     call    0x685            	CALL	_delay_ms
                                           ;	.line	847; "MC32F7361.c"	continue;
00010f   a103     goto    0x103            	GOTO	_00850_DS_
                                           _00800_DS_
                                           ;	.line	850; "MC32F7361.c"	key_event_handle(); // 
000110   84b6     call    0x4b6            	CALL	_key_event_handle
                                           ;	.line	851; "MC32F7361.c"	adc_scan_handle();  // (89ms)
000111   83af     call    0x3af            	CALL	_adc_scan_handle
                                           ;	.line	853; "MC32F7361.c"	turn_dir_scan_handle();
000112   8384     call    0x384            	CALL	_turn_dir_scan_handle
                                           ;	.line	854; "MC32F7361.c"	shutdown_scan_handle(); // 
000113   8366     call    0x366            	CALL	_shutdown_scan_handle
                                           ;	.line	858; "MC32F7361.c"	if (FLAG_IS_IN_CHARGING)
000114   e492     jbset   0x92, 0x2        	JBSET	_flag1,2
000115   a300     goto    0x300            	GOTO	_00837_DS_
                                           ;	.line	860; "MC32F7361.c"	last_pwm_val = T2DATA;      // PWM
000116   59a3     movar   0x1a3            	MOVAR	_T2DATA
000117   5682     movra   0x82             	MOVRA	_last_pwm_val
000118   7683     clrr    0x83             	CLRR	(_last_pwm_val + 1)
                                           ;	.line	861; "MC32F7361.c"	max_pwm_val = (T2LOAD + 1); // PWM
000119   59a2     movar   0x1a2            	MOVAR	_T2LOAD
00011a   5617     movra   0x17             	MOVRA	r0x105D
00011b   7618     clrr    0x18             	CLRR	r0x105E
00011c   3c01     movai   0x1              	MOVAI	0x01
00011d   7c17     addar   0x17             	ADDAR	r0x105D
00011e   567a     movra   0x7a             	MOVRA	_max_pwm_val
00011f   767b     clrr    0x7b             	CLRR	(_max_pwm_val + 1)
000120   527b     rlr     0x7b             	RLR	(_max_pwm_val + 1)
000121   3c00     movai   0                	MOVAI	0x00
000122   7e7b     addra   0x7b             	ADDRA	(_max_pwm_val + 1)
000123   767c     clrr    0x7c             	CLRR	(_max_pwm_val + 2)
000124   767d     clrr    0x7d             	CLRR	(_max_pwm_val + 3)
                                           ;	.line	883; "MC32F7361.c"	tmp_bat_val = adc_bat_val;
000125   5876     movar   0x76             	MOVAR	_adc_bat_val
000126   5686     movra   0x86             	MOVRA	_tmp_bat_val
000127   5877     movar   0x77             	MOVAR	(_adc_bat_val + 1)
000128   5687     movra   0x87             	MOVRA	(_tmp_bat_val + 1)
                                           ;;swapping arguments (AOP_TYPEs 1/3)
                                           ;;unsigned compare: left >= lit(0xB16=2838), size=4
                                           ;	.line	884; "MC32F7361.c"	if (adc_bat_val <= 2837) //  6.5V
000129   3c00     movai   0                	MOVAI	0x00
00012a   4879     rsubar  0x79             	RSUBAR	(_adc_bat_val + 3)
00012b   e587     jbset   0x187, 0x2       	JBSET	PFLAG,2
00012c   a137     goto    0x137            	GOTO	_00971_DS_
00012d   3c00     movai   0                	MOVAI	0x00
00012e   4878     rsubar  0x78             	RSUBAR	(_adc_bat_val + 2)
00012f   e587     jbset   0x187, 0x2       	JBSET	PFLAG,2
000130   a137     goto    0x137            	GOTO	_00971_DS_
000131   3c0b     movai   0xb              	MOVAI	0x0b
000132   4877     rsubar  0x77             	RSUBAR	(_adc_bat_val + 1)
000133   e587     jbset   0x187, 0x2       	JBSET	PFLAG,2
000134   a137     goto    0x137            	GOTO	_00971_DS_
000135   3c16     movai   0x16             	MOVAI	0x16
000136   4876     rsubar  0x76             	RSUBAR	_adc_bat_val
                                           _00971_DS_
000137   f187     jbclr   0x187, 0         	JBCLR	PFLAG,0
000138   a13e     goto    0x13e            	GOTO	_00811_DS_
                                           ;;genSkipc:3291: created from rifx:013B5EFC
                                           ;	.line	887; "MC32F7361.c"	tmp_bat_val += 70; /* 6.25--1.026.35--1.08 */
000139   3c46     movai   0x46             	MOVAI	0x46
00013a   7e86     addra   0x86             	ADDRA	_tmp_bat_val
00013b   f187     jbclr   0x187, 0         	JBCLR	PFLAG,0
00013c   6687     incr    0x87             	INCR	(_tmp_bat_val + 1)
00013d   a1c0     goto    0x1c0            	GOTO	_00812_DS_
                                           ;;swapping arguments (AOP_TYPEs 1/3)
                                           ;;unsigned compare: left >= lit(0xBF1=3057), size=4
                                           _00811_DS_
                                           ;	.line	889; "MC32F7361.c"	else if (adc_bat_val <= 3056) //  7.0V
00013e   3c00     movai   0                	MOVAI	0x00
00013f   4879     rsubar  0x79             	RSUBAR	(_adc_bat_val + 3)
000140   e587     jbset   0x187, 0x2       	JBSET	PFLAG,2
000141   a14c     goto    0x14c            	GOTO	_00972_DS_
000142   3c00     movai   0                	MOVAI	0x00
000143   4878     rsubar  0x78             	RSUBAR	(_adc_bat_val + 2)
000144   e587     jbset   0x187, 0x2       	JBSET	PFLAG,2
000145   a14c     goto    0x14c            	GOTO	_00972_DS_
000146   3c0b     movai   0xb              	MOVAI	0x0b
000147   4877     rsubar  0x77             	RSUBAR	(_adc_bat_val + 1)
000148   e587     jbset   0x187, 0x2       	JBSET	PFLAG,2
000149   a14c     goto    0x14c            	GOTO	_00972_DS_
00014a   3cf1     movai   0xf1             	MOVAI	0xf1
00014b   4876     rsubar  0x76             	RSUBAR	_adc_bat_val
                                           _00972_DS_
00014c   f187     jbclr   0x187, 0         	JBCLR	PFLAG,0
00014d   a153     goto    0x153            	GOTO	_00808_DS_
                                           ;;genSkipc:3291: created from rifx:013B5EFC
                                           ;	.line	892; "MC32F7361.c"	tmp_bat_val += 50; // 6.64--1.016.70--1.036.80--1.0286.90--1.10
00014e   3c32     movai   0x32             	MOVAI	0x32
00014f   7e86     addra   0x86             	ADDRA	_tmp_bat_val
000150   f187     jbclr   0x187, 0         	JBCLR	PFLAG,0
000151   6687     incr    0x87             	INCR	(_tmp_bat_val + 1)
000152   a1c0     goto    0x1c0            	GOTO	_00812_DS_
                                           ;;swapping arguments (AOP_TYPEs 1/3)
                                           ;;unsigned compare: left >= lit(0xC75=3189), size=4
                                           _00808_DS_
                                           ;	.line	895; "MC32F7361.c"	else if (adc_bat_val <= 3188) //  7.3V
000153   3c00     movai   0                	MOVAI	0x00
000154   4879     rsubar  0x79             	RSUBAR	(_adc_bat_val + 3)
000155   e587     jbset   0x187, 0x2       	JBSET	PFLAG,2
000156   a161     goto    0x161            	GOTO	_00973_DS_
000157   3c00     movai   0                	MOVAI	0x00
000158   4878     rsubar  0x78             	RSUBAR	(_adc_bat_val + 2)
000159   e587     jbset   0x187, 0x2       	JBSET	PFLAG,2
00015a   a161     goto    0x161            	GOTO	_00973_DS_
00015b   3c0c     movai   0xc              	MOVAI	0x0c
00015c   4877     rsubar  0x77             	RSUBAR	(_adc_bat_val + 1)
00015d   e587     jbset   0x187, 0x2       	JBSET	PFLAG,2
00015e   a161     goto    0x161            	GOTO	_00973_DS_
00015f   3c75     movai   0x75             	MOVAI	0x75
000160   4876     rsubar  0x76             	RSUBAR	_adc_bat_val
                                           _00973_DS_
000161   f187     jbclr   0x187, 0         	JBCLR	PFLAG,0
000162   a168     goto    0x168            	GOTO	_00805_DS_
                                           ;;genSkipc:3291: created from rifx:013B5EFC
                                           ;	.line	898; "MC32F7361.c"	tmp_bat_val += 35; // 7.20--1.087.25--1.04
000163   3c23     movai   0x23             	MOVAI	0x23
000164   7e86     addra   0x86             	ADDRA	_tmp_bat_val
000165   f187     jbclr   0x187, 0         	JBCLR	PFLAG,0
000166   6687     incr    0x87             	INCR	(_tmp_bat_val + 1)
000167   a1c0     goto    0x1c0            	GOTO	_00812_DS_
                                           ;;swapping arguments (AOP_TYPEs 1/3)
                                           ;;unsigned compare: left >= lit(0xCFF=3327), size=4
                                           _00805_DS_
                                           ;	.line	902; "MC32F7361.c"	else if (adc_bat_val <= 3326) //  7.62V
000168   3c00     movai   0                	MOVAI	0x00
000169   4879     rsubar  0x79             	RSUBAR	(_adc_bat_val + 3)
00016a   e587     jbset   0x187, 0x2       	JBSET	PFLAG,2
00016b   a176     goto    0x176            	GOTO	_00974_DS_
00016c   3c00     movai   0                	MOVAI	0x00
00016d   4878     rsubar  0x78             	RSUBAR	(_adc_bat_val + 2)
00016e   e587     jbset   0x187, 0x2       	JBSET	PFLAG,2
00016f   a176     goto    0x176            	GOTO	_00974_DS_
000170   3c0c     movai   0xc              	MOVAI	0x0c
000171   4877     rsubar  0x77             	RSUBAR	(_adc_bat_val + 1)
000172   e587     jbset   0x187, 0x2       	JBSET	PFLAG,2
000173   a176     goto    0x176            	GOTO	_00974_DS_
000174   3cff     movai   0xff             	MOVAI	0xff
000175   4876     rsubar  0x76             	RSUBAR	_adc_bat_val
                                           _00974_DS_
000176   f187     jbclr   0x187, 0         	JBCLR	PFLAG,0
000177   a17d     goto    0x17d            	GOTO	_00802_DS_
                                           ;;genSkipc:3291: created from rifx:013B5EFC
                                           ;	.line	905; "MC32F7361.c"	tmp_bat_val += 20; // 7.33--0.9917.37--1.037.40--1.0217.50--1.05
000178   3c14     movai   0x14             	MOVAI	0x14
000179   7e86     addra   0x86             	ADDRA	_tmp_bat_val
00017a   f187     jbclr   0x187, 0         	JBCLR	PFLAG,0
00017b   6687     incr    0x87             	INCR	(_tmp_bat_val + 1)
00017c   a1c0     goto    0x1c0            	GOTO	_00812_DS_
                                           _00802_DS_
                                           ;	.line	915; "MC32F7361.c"	tmp_bat_val += 15;
00017d   3c0f     movai   0xf              	MOVAI	0x0f
00017e   7e86     addra   0x86             	ADDRA	_tmp_bat_val
00017f   f187     jbclr   0x187, 0         	JBCLR	PFLAG,0
000180   6687     incr    0x87             	INCR	(_tmp_bat_val + 1)
                                           ;	.line	926; "MC32F7361.c"	tmp_bat_val -= ((u32)adc_bat_val * 157 / 1000 - 522);
000181   5876     movar   0x76             	MOVAR	_adc_bat_val
000182   5600     movra   0                	MOVRA	STK06
000183   5877     movar   0x77             	MOVAR	(_adc_bat_val + 1)
000184   5601     movra   0x1              	MOVRA	STK05
000185   5878     movar   0x78             	MOVAR	(_adc_bat_val + 2)
000186   5602     movra   0x2              	MOVRA	STK04
000187   5879     movar   0x79             	MOVAR	(_adc_bat_val + 3)
000188   5603     movra   0x3              	MOVRA	STK03
000189   3c9d     movai   0x9d             	MOVAI	0x9d
00018a   5604     movra   0x4              	MOVRA	STK02
00018b   3c00     movai   0                	MOVAI	0x00
00018c   5605     movra   0x5              	MOVRA	STK01
00018d   3c00     movai   0                	MOVAI	0x00
00018e   5606     movra   0x6              	MOVRA	STK00
00018f   3c00     movai   0                	MOVAI	0x00
000190   86a5     call    0x6a5            	CALL	__mullong
000191   561a     movra   0x1a             	MOVRA	r0x105F
000192   5806     movar   0x6              	MOVAR	STK00
000193   5619     movra   0x19             	MOVRA	r0x1060
000194   5805     movar   0x5              	MOVAR	STK01
000195   5618     movra   0x18             	MOVRA	r0x105E
000196   5804     movar   0x4              	MOVAR	STK02
000197   5617     movra   0x17             	MOVRA	r0x105D
000198   3ce8     movai   0xe8             	MOVAI	0xe8
000199   5600     movra   0                	MOVRA	STK06
00019a   3c03     movai   0x3              	MOVAI	0x03
00019b   5601     movra   0x1              	MOVRA	STK05
00019c   3c00     movai   0                	MOVAI	0x00
00019d   5602     movra   0x2              	MOVRA	STK04
00019e   3c00     movai   0                	MOVAI	0x00
00019f   5603     movra   0x3              	MOVRA	STK03
0001a0   5817     movar   0x17             	MOVAR	r0x105D
0001a1   5604     movra   0x4              	MOVRA	STK02
0001a2   5818     movar   0x18             	MOVAR	r0x105E
0001a3   5605     movra   0x5              	MOVRA	STK01
0001a4   5819     movar   0x19             	MOVAR	r0x1060
0001a5   5606     movra   0x6              	MOVRA	STK00
0001a6   581a     movar   0x1a             	MOVAR	r0x105F
0001a7   8730     call    0x730            	CALL	__divulong
0001a8   561a     movra   0x1a             	MOVRA	r0x105F
0001a9   5806     movar   0x6              	MOVAR	STK00
0001aa   5619     movra   0x19             	MOVRA	r0x1060
0001ab   5805     movar   0x5              	MOVAR	STK01
0001ac   561c     movra   0x1c             	MOVRA	r0x1062
0001ad   5618     movra   0x18             	MOVRA	r0x105E
0001ae   5804     movar   0x4              	MOVAR	STK02
0001af   561b     movra   0x1b             	MOVRA	r0x1061
0001b0   5617     movra   0x17             	MOVRA	r0x105D
                                           ;;124	MOVAR	r0x105D
                                           ;;125	MOVAR	r0x105E
0001b1   3cf6     movai   0xf6             	MOVAI	0xf6
0001b2   7c1b     addar   0x1b             	ADDAR	r0x1061
0001b3   5617     movra   0x17             	MOVRA	r0x105D
0001b4   3cfd     movai   0xfd             	MOVAI	0xfd
0001b5   5618     movra   0x18             	MOVRA	r0x105E
0001b6   581c     movar   0x1c             	MOVAR	r0x1062
0001b7   f187     jbclr   0x187, 0         	JBCLR	PFLAG,0
0001b8   601c     jzar    0x1c             	JZAR	r0x1062
0001b9   7e18     addra   0x18             	ADDRA	r0x105E
0001ba   5817     movar   0x17             	MOVAR	r0x105D
0001bb   4a86     rsubra  0x86             	RSUBRA	_tmp_bat_val
0001bc   5818     movar   0x18             	MOVAR	r0x105E
0001bd   e187     jbset   0x187, 0         	JBSET	PFLAG,0
0001be   6018     jzar    0x18             	JZAR	r0x105E
0001bf   4a87     rsubra  0x87             	RSUBRA	(_tmp_bat_val + 1)
                                           _00812_DS_
                                           ;	.line	929; "MC32F7361.c"	tmp_bat_val += 50;
0001c0   3c32     movai   0x32             	MOVAI	0x32
0001c1   7e86     addra   0x86             	ADDRA	_tmp_bat_val
0001c2   f187     jbclr   0x187, 0         	JBCLR	PFLAG,0
0001c3   6687     incr    0x87             	INCR	(_tmp_bat_val + 1)
                                           ;;unsigned compare: left < lit(0xE27=3623), size=4
                                           ;	.line	936; "MC32F7361.c"	if (adc_bat_val >= 3623) // 8.30V , 
0001c4   3c00     movai   0                	MOVAI	0x00
0001c5   4879     rsubar  0x79             	RSUBAR	(_adc_bat_val + 3)
0001c6   e587     jbset   0x187, 0x2       	JBSET	PFLAG,2
0001c7   a1d2     goto    0x1d2            	GOTO	_00975_DS_
0001c8   3c00     movai   0                	MOVAI	0x00
0001c9   4878     rsubar  0x78             	RSUBAR	(_adc_bat_val + 2)
0001ca   e587     jbset   0x187, 0x2       	JBSET	PFLAG,2
0001cb   a1d2     goto    0x1d2            	GOTO	_00975_DS_
0001cc   3c0e     movai   0xe              	MOVAI	0x0e
0001cd   4877     rsubar  0x77             	RSUBAR	(_adc_bat_val + 1)
0001ce   e587     jbset   0x187, 0x2       	JBSET	PFLAG,2
0001cf   a1d2     goto    0x1d2            	GOTO	_00975_DS_
0001d0   3c27     movai   0x27             	MOVAI	0x27
0001d1   4876     rsubar  0x76             	RSUBAR	_adc_bat_val
                                           _00975_DS_
0001d2   e187     jbset   0x187, 0         	JBSET	PFLAG,0
0001d3   a1ed     goto    0x1ed            	GOTO	_00817_DS_
                                           ;;genSkipc:3291: created from rifx:013B5EFC
                                           ;	.line	947; "MC32F7361.c"	for (i = 0; i < 120; i++) // 8.32--0.7378.34--0.725
0001d4   7617     clrr    0x17             	CLRR	r0x105D
0001d5   7618     clrr    0x18             	CLRR	r0x105E
                                           ;;swapping arguments (AOP_TYPEs 1/3)
                                           ;;unsigned compare: left >= lit(0x3=3), size=2
                                           _00855_DS_
                                           ;	.line	949; "MC32F7361.c"	if (tmp_bat_val > 2)
0001d6   3c00     movai   0                	MOVAI	0x00
0001d7   4887     rsubar  0x87             	RSUBAR	(_tmp_bat_val + 1)
0001d8   e587     jbset   0x187, 0x2       	JBSET	PFLAG,2
0001d9   a1dc     goto    0x1dc            	GOTO	_00976_DS_
0001da   3c03     movai   0x3              	MOVAI	0x03
0001db   4886     rsubar  0x86             	RSUBAR	_tmp_bat_val
                                           _00976_DS_
0001dc   e187     jbset   0x187, 0         	JBSET	PFLAG,0
0001dd   a1e2     goto    0x1e2            	GOTO	_00856_DS_
                                           ;;genSkipc:3291: created from rifx:013B5EFC
                                           ;	.line	951; "MC32F7361.c"	tmp_bat_val--;
0001de   3cff     movai   0xff             	MOVAI	0xff
0001df   7e86     addra   0x86             	ADDRA	_tmp_bat_val
0001e0   e187     jbset   0x187, 0         	JBSET	PFLAG,0
0001e1   6e87     decr    0x87             	DECR	(_tmp_bat_val + 1)
                                           _00856_DS_
                                           ;	.line	947; "MC32F7361.c"	for (i = 0; i < 120; i++) // 8.32--0.7378.34--0.725
0001e2   6617     incr    0x17             	INCR	r0x105D
0001e3   f587     jbclr   0x187, 0x2       	JBCLR	PFLAG,2
0001e4   6618     incr    0x18             	INCR	r0x105E
                                           ;;unsigned compare: left < lit(0x78=120), size=2
0001e5   3c00     movai   0                	MOVAI	0x00
0001e6   4818     rsubar  0x18             	RSUBAR	r0x105E
0001e7   e587     jbset   0x187, 0x2       	JBSET	PFLAG,2
0001e8   a1eb     goto    0x1eb            	GOTO	_00977_DS_
0001e9   3c78     movai   0x78             	MOVAI	0x78
0001ea   4817     rsubar  0x17             	RSUBAR	r0x105D
                                           _00977_DS_
0001eb   e187     jbset   0x187, 0         	JBSET	PFLAG,0
0001ec   a1d6     goto    0x1d6            	GOTO	_00855_DS_
                                           ;;genSkipc:3291: created from rifx:013B5EFC
                                           _00817_DS_
                                           ;	.line	985; "MC32F7361.c"	tmp_val = max_pwm_val - (adc_charging_val * max_pwm_val * 94 / 147) / tmp_bat_val;
0001ed   5880     movar   0x80             	MOVAR	_adc_charging_val
0001ee   5617     movra   0x17             	MOVRA	r0x105D
0001ef   5881     movar   0x81             	MOVAR	(_adc_charging_val + 1)
0001f0   5618     movra   0x18             	MOVRA	r0x105E
0001f1   761b     clrr    0x1b             	CLRR	r0x1061
0001f2   761c     clrr    0x1c             	CLRR	r0x1062
0001f3   587a     movar   0x7a             	MOVAR	_max_pwm_val
0001f4   5600     movra   0                	MOVRA	STK06
0001f5   587b     movar   0x7b             	MOVAR	(_max_pwm_val + 1)
0001f6   5601     movra   0x1              	MOVRA	STK05
0001f7   587c     movar   0x7c             	MOVAR	(_max_pwm_val + 2)
0001f8   5602     movra   0x2              	MOVRA	STK04
0001f9   587d     movar   0x7d             	MOVAR	(_max_pwm_val + 3)
0001fa   5603     movra   0x3              	MOVRA	STK03
0001fb   5817     movar   0x17             	MOVAR	r0x105D
0001fc   5604     movra   0x4              	MOVRA	STK02
0001fd   5818     movar   0x18             	MOVAR	r0x105E
0001fe   5605     movra   0x5              	MOVRA	STK01
0001ff   3c00     movai   0                	MOVAI	0x00
000200   5606     movra   0x6              	MOVRA	STK00
000201   3c00     movai   0                	MOVAI	0x00
000202   86a5     call    0x6a5            	CALL	__mullong
000203   561c     movra   0x1c             	MOVRA	r0x1062
000204   5806     movar   0x6              	MOVAR	STK00
000205   561b     movra   0x1b             	MOVRA	r0x1061
000206   5805     movar   0x5              	MOVAR	STK01
000207   5618     movra   0x18             	MOVRA	r0x105E
000208   5804     movar   0x4              	MOVAR	STK02
000209   5617     movra   0x17             	MOVRA	r0x105D
00020a   5817     movar   0x17             	MOVAR	r0x105D
00020b   5600     movra   0                	MOVRA	STK06
00020c   5818     movar   0x18             	MOVAR	r0x105E
00020d   5601     movra   0x1              	MOVRA	STK05
00020e   581b     movar   0x1b             	MOVAR	r0x1061
00020f   5602     movra   0x2              	MOVRA	STK04
000210   581c     movar   0x1c             	MOVAR	r0x1062
000211   5603     movra   0x3              	MOVRA	STK03
000212   3c5e     movai   0x5e             	MOVAI	0x5e
000213   5604     movra   0x4              	MOVRA	STK02
000214   3c00     movai   0                	MOVAI	0x00
000215   5605     movra   0x5              	MOVRA	STK01
000216   3c00     movai   0                	MOVAI	0x00
000217   5606     movra   0x6              	MOVRA	STK00
000218   3c00     movai   0                	MOVAI	0x00
000219   86a5     call    0x6a5            	CALL	__mullong
00021a   561c     movra   0x1c             	MOVRA	r0x1062
00021b   5806     movar   0x6              	MOVAR	STK00
00021c   561b     movra   0x1b             	MOVRA	r0x1061
00021d   5805     movar   0x5              	MOVAR	STK01
00021e   5618     movra   0x18             	MOVRA	r0x105E
00021f   5804     movar   0x4              	MOVAR	STK02
000220   5617     movra   0x17             	MOVRA	r0x105D
000221   3c93     movai   0x93             	MOVAI	0x93
000222   5600     movra   0                	MOVRA	STK06
000223   3c00     movai   0                	MOVAI	0x00
000224   5601     movra   0x1              	MOVRA	STK05
000225   3c00     movai   0                	MOVAI	0x00
000226   5602     movra   0x2              	MOVRA	STK04
000227   3c00     movai   0                	MOVAI	0x00
000228   5603     movra   0x3              	MOVRA	STK03
000229   5817     movar   0x17             	MOVAR	r0x105D
00022a   5604     movra   0x4              	MOVRA	STK02
00022b   5818     movar   0x18             	MOVAR	r0x105E
00022c   5605     movra   0x5              	MOVRA	STK01
00022d   581b     movar   0x1b             	MOVAR	r0x1061
00022e   5606     movra   0x6              	MOVRA	STK00
00022f   581c     movar   0x1c             	MOVAR	r0x1062
000230   8730     call    0x730            	CALL	__divulong
000231   561c     movra   0x1c             	MOVRA	r0x1062
000232   5806     movar   0x6              	MOVAR	STK00
000233   561b     movra   0x1b             	MOVRA	r0x1061
000234   5805     movar   0x5              	MOVAR	STK01
000235   5618     movra   0x18             	MOVRA	r0x105E
000236   5804     movar   0x4              	MOVAR	STK02
000237   5617     movra   0x17             	MOVRA	r0x105D
000238   5886     movar   0x86             	MOVAR	_tmp_bat_val
000239   561d     movra   0x1d             	MOVRA	r0x1063
00023a   5887     movar   0x87             	MOVAR	(_tmp_bat_val + 1)
00023b   561e     movra   0x1e             	MOVRA	r0x1064
00023c   761f     clrr    0x1f             	CLRR	r0x1065
00023d   7620     clrr    0x20             	CLRR	r0x1066
00023e   581d     movar   0x1d             	MOVAR	r0x1063
00023f   5600     movra   0                	MOVRA	STK06
000240   581e     movar   0x1e             	MOVAR	r0x1064
000241   5601     movra   0x1              	MOVRA	STK05
000242   3c00     movai   0                	MOVAI	0x00
000243   5602     movra   0x2              	MOVRA	STK04
000244   3c00     movai   0                	MOVAI	0x00
000245   5603     movra   0x3              	MOVRA	STK03
000246   5817     movar   0x17             	MOVAR	r0x105D
000247   5604     movra   0x4              	MOVRA	STK02
000248   5818     movar   0x18             	MOVAR	r0x105E
000249   5605     movra   0x5              	MOVRA	STK01
00024a   581b     movar   0x1b             	MOVAR	r0x1061
00024b   5606     movra   0x6              	MOVRA	STK00
00024c   581c     movar   0x1c             	MOVAR	r0x1062
00024d   8730     call    0x730            	CALL	__divulong
00024e   561c     movra   0x1c             	MOVRA	r0x1062
00024f   5806     movar   0x6              	MOVAR	STK00
000250   561b     movra   0x1b             	MOVRA	r0x1061
000251   5805     movar   0x5              	MOVAR	STK01
000252   5620     movra   0x20             	MOVRA	r0x1066
000253   5618     movra   0x18             	MOVRA	r0x105E
000254   5804     movar   0x4              	MOVAR	STK02
000255   561f     movra   0x1f             	MOVRA	r0x1065
000256   5617     movra   0x17             	MOVRA	r0x105D
000257   587a     movar   0x7a             	MOVAR	_max_pwm_val
000258   561d     movra   0x1d             	MOVRA	r0x1063
000259   587b     movar   0x7b             	MOVAR	(_max_pwm_val + 1)
00025a   561e     movra   0x1e             	MOVRA	r0x1064
                                           ;;121	MOVAR	r0x105D
                                           ;;122	MOVAR	r0x105E
00025b   581f     movar   0x1f             	MOVAR	r0x1065
00025c   481d     rsubar  0x1d             	RSUBAR	r0x1063
00025d   5684     movra   0x84             	MOVRA	_tmp_val
00025e   5820     movar   0x20             	MOVAR	r0x1066
00025f   e187     jbset   0x187, 0         	JBSET	PFLAG,0
000260   6420     incar   0x20             	INCAR	r0x1066
000261   481e     rsubar  0x1e             	RSUBAR	r0x1064
000262   5685     movra   0x85             	MOVRA	(_tmp_val + 1)
                                           ;	.line	990; "MC32F7361.c"	if (tmp_val >= max_pwm_val)
000263   5884     movar   0x84             	MOVAR	_tmp_val
000264   5617     movra   0x17             	MOVRA	r0x105D
000265   5885     movar   0x85             	MOVAR	(_tmp_val + 1)
000266   5618     movra   0x18             	MOVRA	r0x105E
000267   761b     clrr    0x1b             	CLRR	r0x1061
000268   761c     clrr    0x1c             	CLRR	r0x1062
000269   587d     movar   0x7d             	MOVAR	(_max_pwm_val + 3)
00026a   481c     rsubar  0x1c             	RSUBAR	r0x1062
00026b   e587     jbset   0x187, 0x2       	JBSET	PFLAG,2
00026c   a277     goto    0x277            	GOTO	_00978_DS_
00026d   587c     movar   0x7c             	MOVAR	(_max_pwm_val + 2)
00026e   481b     rsubar  0x1b             	RSUBAR	r0x1061
00026f   e587     jbset   0x187, 0x2       	JBSET	PFLAG,2
000270   a277     goto    0x277            	GOTO	_00978_DS_
000271   587b     movar   0x7b             	MOVAR	(_max_pwm_val + 1)
000272   4818     rsubar  0x18             	RSUBAR	r0x105E
000273   e587     jbset   0x187, 0x2       	JBSET	PFLAG,2
000274   a277     goto    0x277            	GOTO	_00978_DS_
000275   587a     movar   0x7a             	MOVAR	_max_pwm_val
000276   4817     rsubar  0x17             	RSUBAR	r0x105D
                                           _00978_DS_
000277   e187     jbset   0x187, 0         	JBSET	PFLAG,0
000278   a27b     goto    0x27b            	GOTO	_00819_DS_
                                           ;;genSkipc:3291: created from rifx:013B5EFC
                                           ;	.line	993; "MC32F7361.c"	tmp_val = 0;
000279   7684     clrr    0x84             	CLRR	_tmp_val
00027a   7685     clrr    0x85             	CLRR	(_tmp_val + 1)
                                           _00819_DS_
                                           ;	.line	997; "MC32F7361.c"	tmp_val_cnt++;
00027b   668d     incr    0x8d             	INCR	_tmp_val_cnt
                                           ;	.line	998; "MC32F7361.c"	tmp_val_cnt &= 0x07;
00027c   3c07     movai   0x7              	MOVAI	0x07
00027d   7a8d     andra   0x8d             	ANDRA	_tmp_val_cnt
                                           ;	.line	999; "MC32F7361.c"	tmp_val_l[tmp_val_cnt] = (tmp_val_l[tmp_val_cnt] + tmp_val) >> 1;
00027e   d187     bclr    0x187, 0         	BCLR	PFLAG,0
00027f   508d     rlar    0x8d             	RLAR	_tmp_val_cnt
000280   5617     movra   0x17             	MOVRA	r0x105D
000281   5817     movar   0x17             	MOVAR	r0x105D
000282   3f4e     addai   0x4e             	ADDAI	(_tmp_val_l + 0)
000283   5617     movra   0x17             	MOVRA	r0x105D
000284   3c00     movai   0                	MOVAI	high (_tmp_val_l + 0)
000285   f187     jbclr   0x187, 0         	JBCLR	PFLAG,0
000286   3f01     addai   0x1              	ADDAI	0x01
000287   5618     movra   0x18             	MOVRA	r0x105E
000288   d187     bclr    0x187, 0         	BCLR	PFLAG,0
000289   508d     rlar    0x8d             	RLAR	_tmp_val_cnt
00028a   561b     movra   0x1b             	MOVRA	r0x1061
00028b   581b     movar   0x1b             	MOVAR	r0x1061
00028c   3f4e     addai   0x4e             	ADDAI	(_tmp_val_l + 0)
00028d   561b     movra   0x1b             	MOVRA	r0x1061
00028e   3c00     movai   0                	MOVAI	high (_tmp_val_l + 0)
00028f   f187     jbclr   0x187, 0         	JBCLR	PFLAG,0
000290   3f01     addai   0x1              	ADDAI	0x01
000291   561c     movra   0x1c             	MOVRA	r0x1062
000292   581b     movar   0x1b             	MOVAR	r0x1061
000293   5784     movra   0x184            	MOVRA	FSR0
000294   581c     movar   0x1c             	MOVAR	r0x1062
000295   5785     movra   0x185            	MOVRA	FSR1
000296   5982     movar   0x182            	MOVAR	INDF2
000297   561d     movra   0x1d             	MOVRA	r0x1063
000298   6784     incr    0x184            	INCR	FSR0
000299   f587     jbclr   0x187, 0x2       	JBCLR	PFLAG,2
00029a   6785     incr    0x185            	INCR	FSR1
00029b   5982     movar   0x182            	MOVAR	INDF2
00029c   561c     movra   0x1c             	MOVRA	r0x1062
00029d   561e     movra   0x1e             	MOVRA	r0x1064
00029e   5884     movar   0x84             	MOVAR	_tmp_val
00029f   7c1d     addar   0x1d             	ADDAR	r0x1063
0002a0   561b     movra   0x1b             	MOVRA	r0x1061
                                           ;;123	MOVAR	r0x1064
0002a1   5885     movar   0x85             	MOVAR	(_tmp_val + 1)
0002a2   f187     jbclr   0x187, 0         	JBCLR	PFLAG,0
0002a3   6085     jzar    0x85             	JZAR	(_tmp_val + 1)
0002a4   7e1c     addra   0x1c             	ADDRA	r0x1062
                                           ;;shiftRight_Left2ResultLit:5339: shCount=1, size=2, sign=0, same=0, offr=0
0002a5   d187     bclr    0x187, 0         	BCLR	PFLAG,0
0002a6   4c1c     rrar    0x1c             	RRAR	r0x1062
0002a7   561e     movra   0x1e             	MOVRA	r0x1064
0002a8   4c1b     rrar    0x1b             	RRAR	r0x1061
0002a9   561d     movra   0x1d             	MOVRA	r0x1063
0002aa   5817     movar   0x17             	MOVAR	r0x105D
0002ab   5784     movra   0x184            	MOVRA	FSR0
0002ac   5818     movar   0x18             	MOVAR	r0x105E
0002ad   5785     movra   0x185            	MOVRA	FSR1
0002ae   581d     movar   0x1d             	MOVAR	r0x1063
0002af   5782     movra   0x182            	MOVRA	INDF2
0002b0   6784     incr    0x184            	INCR	FSR0
0002b1   f587     jbclr   0x187, 0x2       	JBCLR	PFLAG,2
0002b2   6785     incr    0x185            	INCR	FSR1
0002b3   581e     movar   0x1e             	MOVAR	r0x1064
0002b4   5782     movra   0x182            	MOVRA	INDF2
                                           ;	.line	1000; "MC32F7361.c"	tmp_val = 0;
0002b5   7684     clrr    0x84             	CLRR	_tmp_val
0002b6   7685     clrr    0x85             	CLRR	(_tmp_val + 1)
                                           ;	.line	1001; "MC32F7361.c"	for (i = 0; i < 8; i++)
0002b7   768c     clrr    0x8c             	CLRR	_i
                                           ;;unsigned compare: left < lit(0x8=8), size=1
                                           _00858_DS_
0002b8   3c08     movai   0x8              	MOVAI	0x08
0002b9   488c     rsubar  0x8c             	RSUBAR	_i
0002ba   f187     jbclr   0x187, 0         	JBCLR	PFLAG,0
0002bb   a2d9     goto    0x2d9            	GOTO	_00820_DS_
                                           ;;genSkipc:3291: created from rifx:013B5EFC
                                           ;	.line	1003; "MC32F7361.c"	tmp_val += tmp_val_l[i];
0002bc   d187     bclr    0x187, 0         	BCLR	PFLAG,0
0002bd   508c     rlar    0x8c             	RLAR	_i
0002be   5617     movra   0x17             	MOVRA	r0x105D
0002bf   5817     movar   0x17             	MOVAR	r0x105D
0002c0   3f4e     addai   0x4e             	ADDAI	(_tmp_val_l + 0)
0002c1   5617     movra   0x17             	MOVRA	r0x105D
0002c2   3c00     movai   0                	MOVAI	high (_tmp_val_l + 0)
0002c3   f187     jbclr   0x187, 0         	JBCLR	PFLAG,0
0002c4   3f01     addai   0x1              	ADDAI	0x01
0002c5   5618     movra   0x18             	MOVRA	r0x105E
0002c6   5817     movar   0x17             	MOVAR	r0x105D
0002c7   5784     movra   0x184            	MOVRA	FSR0
0002c8   5818     movar   0x18             	MOVAR	r0x105E
0002c9   5785     movra   0x185            	MOVRA	FSR1
0002ca   5982     movar   0x182            	MOVAR	INDF2
0002cb   561b     movra   0x1b             	MOVRA	r0x1061
0002cc   6784     incr    0x184            	INCR	FSR0
0002cd   f587     jbclr   0x187, 0x2       	JBCLR	PFLAG,2
0002ce   6785     incr    0x185            	INCR	FSR1
0002cf   5982     movar   0x182            	MOVAR	INDF2
0002d0   561c     movra   0x1c             	MOVRA	r0x1062
0002d1   581b     movar   0x1b             	MOVAR	r0x1061
0002d2   7e84     addra   0x84             	ADDRA	_tmp_val
0002d3   581c     movar   0x1c             	MOVAR	r0x1062
0002d4   f187     jbclr   0x187, 0         	JBCLR	PFLAG,0
0002d5   601c     jzar    0x1c             	JZAR	r0x1062
0002d6   7e85     addra   0x85             	ADDRA	(_tmp_val + 1)
                                           ;	.line	1001; "MC32F7361.c"	for (i = 0; i < 8; i++)
0002d7   668c     incr    0x8c             	INCR	_i
0002d8   a2b8     goto    0x2b8            	GOTO	_00858_DS_
                                           ;;shiftRight_Left2ResultLit:5339: shCount=1, size=2, sign=0, same=1, offr=0
                                           _00820_DS_
                                           ;	.line	1005; "MC32F7361.c"	tmp_val >>= 3;
0002d9   d187     bclr    0x187, 0         	BCLR	PFLAG,0
0002da   4e85     rrr     0x85             	RRR	(_tmp_val + 1)
0002db   4e84     rrr     0x84             	RRR	_tmp_val
                                           ;;shiftRight_Left2ResultLit:5339: shCount=1, size=2, sign=0, same=1, offr=0
0002dc   d187     bclr    0x187, 0         	BCLR	PFLAG,0
0002dd   4e85     rrr     0x85             	RRR	(_tmp_val + 1)
0002de   4e84     rrr     0x84             	RRR	_tmp_val
                                           ;;shiftRight_Left2ResultLit:5339: shCount=1, size=2, sign=0, same=1, offr=0
0002df   d187     bclr    0x187, 0         	BCLR	PFLAG,0
0002e0   4e85     rrr     0x85             	RRR	(_tmp_val + 1)
0002e1   4e84     rrr     0x84             	RRR	_tmp_val
                                           ;	.line	1014; "MC32F7361.c"	if (flag_is_adjust_pwm_time_comes)
0002e2   ec94     jbset   0x94, 0x6        	JBSET	_flag3,6
0002e3   a2fd     goto    0x2fd            	GOTO	_00827_DS_
                                           ;	.line	1016; "MC32F7361.c"	flag_is_adjust_pwm_time_comes = 0;
0002e4   dc94     bclr    0x94, 0x6        	BCLR	_flag3,6
                                           ;	.line	1018; "MC32F7361.c"	if (tmp_val > last_pwm_val)
0002e5   5885     movar   0x85             	MOVAR	(_tmp_val + 1)
0002e6   4883     rsubar  0x83             	RSUBAR	(_last_pwm_val + 1)
0002e7   e587     jbset   0x187, 0x2       	JBSET	PFLAG,2
0002e8   a2eb     goto    0x2eb            	GOTO	_00980_DS_
0002e9   5884     movar   0x84             	MOVAR	_tmp_val
0002ea   4882     rsubar  0x82             	RSUBAR	_last_pwm_val
                                           _00980_DS_
0002eb   f187     jbclr   0x187, 0         	JBCLR	PFLAG,0
0002ec   a2f1     goto    0x2f1            	GOTO	_00824_DS_
                                           ;;genSkipc:3291: created from rifx:013B5EFC
                                           ;	.line	1023; "MC32F7361.c"	last_pwm_val++;
0002ed   6682     incr    0x82             	INCR	_last_pwm_val
0002ee   f587     jbclr   0x187, 0x2       	JBCLR	PFLAG,2
0002ef   6683     incr    0x83             	INCR	(_last_pwm_val + 1)
0002f0   a2fd     goto    0x2fd            	GOTO	_00827_DS_
                                           _00824_DS_
                                           ;	.line	1027; "MC32F7361.c"	else if (tmp_val < last_pwm_val)
0002f1   5883     movar   0x83             	MOVAR	(_last_pwm_val + 1)
0002f2   4885     rsubar  0x85             	RSUBAR	(_tmp_val + 1)
0002f3   e587     jbset   0x187, 0x2       	JBSET	PFLAG,2
0002f4   a2f7     goto    0x2f7            	GOTO	_00981_DS_
0002f5   5882     movar   0x82             	MOVAR	_last_pwm_val
0002f6   4884     rsubar  0x84             	RSUBAR	_tmp_val
                                           _00981_DS_
0002f7   f187     jbclr   0x187, 0         	JBCLR	PFLAG,0
0002f8   a2fd     goto    0x2fd            	GOTO	_00827_DS_
                                           ;;genSkipc:3291: created from rifx:013B5EFC
                                           ;	.line	1032; "MC32F7361.c"	last_pwm_val--;
0002f9   3cff     movai   0xff             	MOVAI	0xff
0002fa   7e82     addra   0x82             	ADDRA	_last_pwm_val
0002fb   e187     jbset   0x187, 0         	JBSET	PFLAG,0
0002fc   6e83     decr    0x83             	DECR	(_last_pwm_val + 1)
                                           _00827_DS_
                                           ;	.line	1038; "MC32F7361.c"	T2DATA = last_pwm_val;
0002fd   5882     movar   0x82             	MOVAR	_last_pwm_val
0002fe   57a3     movra   0x1a3            	MOVRA	_T2DATA
0002ff   a30c     goto    0x30c            	GOTO	_00838_DS_
                                           _00837_DS_
                                           ;	.line	1043; "MC32F7361.c"	if (FLAG_DURING_CHARGING_BAT_IS_NULL)
000300   ee92     jbset   0x92, 0x7        	JBSET	_flag1,7
000301   a30c     goto    0x30c            	GOTO	_00838_DS_
                                           ;	.line	1046; "MC32F7361.c"	LED_RED_ON();
000302   d994     bclr    0x194, 0x4       	BCLR	_IOP1bits,4
                                           ;	.line	1047; "MC32F7361.c"	delay_ms(200);
000303   3cc8     movai   0xc8             	MOVAI	0xc8
000304   5606     movra   0x6              	MOVRA	STK00
000305   3c00     movai   0                	MOVAI	0x00
000306   8685     call    0x685            	CALL	_delay_ms
                                           ;	.line	1048; "MC32F7361.c"	LED_RED_OFF();
000307   c994     bset    0x194, 0x4       	BSET	_IOP1bits,4
                                           ;	.line	1049; "MC32F7361.c"	delay_ms(200);
000308   3cc8     movai   0xc8             	MOVAI	0xc8
000309   5606     movra   0x6              	MOVRA	STK00
00030a   3c00     movai   0                	MOVAI	0x00
00030b   8685     call    0x685            	CALL	_delay_ms
                                           _00838_DS_
                                           ;	.line	1053; "MC32F7361.c"	if (flag_is_low_battery)
00030c   e493     jbset   0x93, 0x2        	JBSET	_flag2,2
00030d   a328     goto    0x328            	GOTO	_00848_DS_
                                           ;	.line	1057; "MC32F7361.c"	LED_RED_ON();
00030e   d994     bclr    0x194, 0x4       	BCLR	_IOP1bits,4
                                           ;	.line	1058; "MC32F7361.c"	for (i = 0; i < 20; i++)
00030f   768c     clrr    0x8c             	CLRR	_i
                                           ;;unsigned compare: left < lit(0x14=20), size=1
                                           _00861_DS_
000310   3c14     movai   0x14             	MOVAI	0x14
000311   488c     rsubar  0x8c             	RSUBAR	_i
000312   f187     jbclr   0x187, 0         	JBCLR	PFLAG,0
000313   a31b     goto    0x31b            	GOTO	_00843_DS_
                                           ;;genSkipc:3291: created from rifx:013B5EFC
                                           ;	.line	1060; "MC32F7361.c"	key_event_handle();
000314   84b6     call    0x4b6            	CALL	_key_event_handle
                                           ;	.line	1061; "MC32F7361.c"	delay_ms(10);
000315   3c0a     movai   0xa              	MOVAI	0x0a
000316   5606     movra   0x6              	MOVRA	STK00
000317   3c00     movai   0                	MOVAI	0x00
000318   8685     call    0x685            	CALL	_delay_ms
                                           ;	.line	1058; "MC32F7361.c"	for (i = 0; i < 20; i++)
000319   668c     incr    0x8c             	INCR	_i
00031a   a310     goto    0x310            	GOTO	_00861_DS_
                                           _00843_DS_
                                           ;	.line	1065; "MC32F7361.c"	LED_RED_OFF();
00031b   c994     bset    0x194, 0x4       	BSET	_IOP1bits,4
                                           ;	.line	1066; "MC32F7361.c"	for (i = 0; i < 20; i++)
00031c   768c     clrr    0x8c             	CLRR	_i
                                           ;;unsigned compare: left < lit(0x14=20), size=1
                                           _00864_DS_
00031d   3c14     movai   0x14             	MOVAI	0x14
00031e   488c     rsubar  0x8c             	RSUBAR	_i
00031f   f187     jbclr   0x187, 0         	JBCLR	PFLAG,0
000320   a328     goto    0x328            	GOTO	_00848_DS_
                                           ;;genSkipc:3291: created from rifx:013B5EFC
                                           ;	.line	1068; "MC32F7361.c"	key_event_handle();
000321   84b6     call    0x4b6            	CALL	_key_event_handle
                                           ;	.line	1069; "MC32F7361.c"	delay_ms(10);
000322   3c0a     movai   0xa              	MOVAI	0x0a
000323   5606     movra   0x6              	MOVRA	STK00
000324   3c00     movai   0                	MOVAI	0x00
000325   8685     call    0x685            	CALL	_delay_ms
                                           ;	.line	1066; "MC32F7361.c"	for (i = 0; i < 20; i++)
000326   668c     incr    0x8c             	INCR	_i
000327   a31d     goto    0x31d            	GOTO	_00864_DS_
                                           _00848_DS_
                                           ;	.line	1073; "MC32F7361.c"	low_power_scan_handle(); // 
000328   832c     call    0x32c            	CALL	_low_power_scan_handle
                                           ;	.line	1078; "MC32F7361.c"	__endasm;
                                           	;
000329   000e     clrwdt                   	CLRWDT;
                                           	
00032a   a103     goto    0x103            	GOTO	_00850_DS_
                                           ;	.line	1083; "MC32F7361.c"	}
00032b   000c     return                   	RETURN	
                                           ; exit point of _main
                                           
                                           ;***
                                           ;  pBlock Stats: dbName = C
                                           ;***
                                           ;entry:  _low_power_scan_handle	;Function start
                                           ; 2 exit points
                                           ;has an exit
                                           ;functions called:
                                           ;   _CLR_RAM
                                           ;   _adc_config
                                           ;   _adc_sel_pin
                                           ;   _adc_get_val_once
                                           ;   _Sys_Init
                                           ;   _CLR_RAM
                                           ;   _adc_config
                                           ;   _adc_sel_pin
                                           ;   _adc_get_val_once
                                           ;   _Sys_Init
                                           ;2 compiler assigned registers:
                                           ;   r0x1055
                                           ;   STK00
                                           ;; Starting pCode block
                                           _low_power_scan_handle	;Function start
                                           ; 2 exit points
                                           ;	.line	753; "MC32F7361.c"	if (FLAG_DURING_CHARGING_BAT_IS_NULL || // 
00032c   fe92     jbclr   0x92, 0x7        	JBCLR	_flag1,7
00032d   a339     goto    0x339            	GOTO	_00748_DS_
                                           ;	.line	754; "MC32F7361.c"	FLAG_IS_DEVICE_OPEN ||              // 
00032e   f092     jbclr   0x92, 0          	JBCLR	_flag1,0
00032f   a339     goto    0x339            	GOTO	_00748_DS_
                                           ;	.line	755; "MC32F7361.c"	FLAG_IS_IN_CHARGING ||              // PWM
000330   f492     jbclr   0x92, 0x2        	JBCLR	_flag1,2
000331   a339     goto    0x339            	GOTO	_00748_DS_
                                           ;	.line	756; "MC32F7361.c"	(1 == P11D))                        //  / ()
000332   760e     clrr    0xe              	CLRR	r0x1055
000333   f394     jbclr   0x194, 0x1       	JBCLR	_IOP1bits,1
000334   660e     incr    0xe              	INCR	r0x1055
000335   580e     movar   0xe              	MOVAR	r0x1055
000336   3901     xorai   0x1              	XORAI	0x01
000337   e587     jbset   0x187, 0x2       	JBSET	PFLAG,2
000338   a33a     goto    0x33a            	GOTO	_00753_DS_
                                           _00748_DS_
                                           ;	.line	758; "MC32F7361.c"	return;
000339   a365     goto    0x365            	GOTO	_00763_DS_
                                           _00753_DS_
                                           ;	.line	762; "MC32F7361.c"	GIE = 0;  // 
00033a   df88     bclr    0x188, 0x7       	BCLR	_MCRbits,7
                                           ;	.line	763; "MC32F7361.c"	T0EN = 0; // PWM
00033b   df98     bclr    0x198, 0x7       	BCLR	_T0CRbits,7
                                           ;	.line	764; "MC32F7361.c"	T1EN = 0;
00033c   df9c     bclr    0x19c, 0x7       	BCLR	_T1CRbits,7
                                           ;	.line	765; "MC32F7361.c"	T2EN = 0;
00033d   dfa0     bclr    0x1a0, 0x7       	BCLR	_T2CRbits,7
                                           ;	.line	766; "MC32F7361.c"	T3EN = 0;
00033e   dfa4     bclr    0x1a4, 0x7       	BCLR	_T3CRbits,7
                                           ;	.line	768; "MC32F7361.c"	PWM0EC = 0;
00033f   dd98     bclr    0x198, 0x6       	BCLR	_T0CRbits,6
                                           ;	.line	769; "MC32F7361.c"	PWM1EC = 0;
000340   dd9c     bclr    0x19c, 0x6       	BCLR	_T1CRbits,6
                                           ;	.line	770; "MC32F7361.c"	PWM2EC = 0;
000341   dda0     bclr    0x1a0, 0x6       	BCLR	_T2CRbits,6
                                           ;	.line	771; "MC32F7361.c"	T2DATA = 0;
000342   77a3     clrr    0x1a3            	CLRR	_T2DATA
                                           ;	.line	772; "MC32F7361.c"	ADEN = 0; // ad
000343   d1b0     bclr    0x1b0, 0         	BCLR	_ADCR0bits,0
                                           ;	.line	774; "MC32F7361.c"	LED_RED_OFF();
000344   c994     bset    0x194, 0x4       	BSET	_IOP1bits,4
                                           ;	.line	775; "MC32F7361.c"	LED_GREEN_OFF();
000345   c990     bset    0x190, 0x4       	BSET	_IOP0bits,4
                                           ;	.line	777; "MC32F7361.c"	P11PD = 1;
000346   c397     bset    0x197, 0x1       	BSET	_PDP1bits,1
                                           ;	.line	778; "MC32F7361.c"	P11OE = 0; // 
000347   d395     bclr    0x195, 0x1       	BCLR	_OEP1bits,1
                                           ;	.line	781; "MC32F7361.c"	P00PD = 1;
000348   c193     bset    0x193, 0         	BSET	_PDP0bits,0
                                           ;	.line	782; "MC32F7361.c"	P00OE = 0;
000349   d191     bclr    0x191, 0         	BCLR	_OEP0bits,0
                                           ;	.line	784; "MC32F7361.c"	HFEN = 0; // 
00034a   d1ae     bclr    0x1ae, 0         	BCLR	_OSCMRbits,0
                                           ;	.line	785; "MC32F7361.c"	LFEN = 1;
00034b   c3ae     bset    0x1ae, 0x1       	BSET	_OSCMRbits,1
                                           ;	.line	788; "MC32F7361.c"	Nop();
00034c   0000     nop                      	nop	
                                           ;	.line	789; "MC32F7361.c"	Nop();
00034d   0000     nop                      	nop	
                                           ;	.line	790; "MC32F7361.c"	Stop();
00034e   000b     stop                     	stop	
                                           ;	.line	791; "MC32F7361.c"	Nop();
00034f   0000     nop                      	nop	
                                           ;	.line	792; "MC32F7361.c"	Nop();
000350   0000     nop                      	nop	
                                           ;	.line	794; "MC32F7361.c"	HFEN = 1; // 
000351   c1ae     bset    0x1ae, 0         	BSET	_OSCMRbits,0
                                           ;	.line	796; "MC32F7361.c"	CLR_RAM();
000352   8679     call    0x679            	CALL	_CLR_RAM
                                           ;	.line	798; "MC32F7361.c"	adc_config();
000353   866d     call    0x66d            	CALL	_adc_config
                                           ;	.line	799; "MC32F7361.c"	adc_sel_pin(ADC_PIN_P00_AN0);
000354   3c01     movai   0x1              	MOVAI	0x01
000355   8656     call    0x656            	CALL	_adc_sel_pin
                                           ;	.line	800; "MC32F7361.c"	adc_val = adc_get_val_once();
000356   859d     call    0x59d            	CALL	_adc_get_val_once
000357   567f     movra   0x7f             	MOVRA	(_adc_val + 1)
000358   5806     movar   0x6              	MOVAR	STK00
000359   567e     movra   0x7e             	MOVRA	_adc_val
                                           ;;unsigned compare: left < lit(0x800=2048), size=2
                                           ;	.line	802; "MC32F7361.c"	if (adc_val < ADCDETECT_CHARING_THRESHOLD && P11D == 0)
00035a   3c08     movai   0x8              	MOVAI	0x08
00035b   487f     rsubar  0x7f             	RSUBAR	(_adc_val + 1)
00035c   e587     jbset   0x187, 0x2       	JBSET	PFLAG,2
00035d   a360     goto    0x360            	GOTO	_00785_DS_
00035e   3c00     movai   0                	MOVAI	0x00
00035f   487e     rsubar  0x7e             	RSUBAR	_adc_val
                                           _00785_DS_
000360   f187     jbclr   0x187, 0         	JBCLR	PFLAG,0
000361   a364     goto    0x364            	GOTO	_00761_DS_
                                           ;;genSkipc:3291: created from rifx:013B5EFC
000362   e394     jbset   0x194, 0x1       	JBSET	_IOP1bits,1
000363   a33a     goto    0x33a            	GOTO	_00753_DS_
                                           _00761_DS_
                                           ;	.line	809; "MC32F7361.c"	Sys_Init();
000364   855d     call    0x55d            	CALL	_Sys_Init
                                           _00763_DS_
                                           ;	.line	810; "MC32F7361.c"	}
000365   000c     return                   	RETURN	
                                           ; exit point of _low_power_scan_handle
                                           
                                           ;***
                                           ;  pBlock Stats: dbName = C
                                           ;***
                                           ;entry:  _shutdown_scan_handle	;Function start
                                           ; 2 exit points
                                           ;has an exit
                                           ;; Starting pCode block
                                           _shutdown_scan_handle	;Function start
                                           ; 2 exit points
                                           ;	.line	726; "MC32F7361.c"	if (FLAG_IS_DEVICE_OPEN)
000366   e092     jbset   0x92, 0          	JBSET	_flag1,0
000367   a37f     goto    0x37f            	GOTO	_00731_DS_
                                           ;;unsigned compare: left < lit(0xDBBA0=900000), size=4
                                           ;	.line	729; "MC32F7361.c"	if (shut_down_ms_cnt >= ((u32)15 * 60 * 1000))
000368   3c00     movai   0                	MOVAI	0x00
000369   4875     rsubar  0x75             	RSUBAR	(_shut_down_ms_cnt + 3)
00036a   e587     jbset   0x187, 0x2       	JBSET	PFLAG,2
00036b   a376     goto    0x376            	GOTO	_00743_DS_
00036c   3c0d     movai   0xd              	MOVAI	0x0d
00036d   4874     rsubar  0x74             	RSUBAR	(_shut_down_ms_cnt + 2)
00036e   e587     jbset   0x187, 0x2       	JBSET	PFLAG,2
00036f   a376     goto    0x376            	GOTO	_00743_DS_
000370   3cbb     movai   0xbb             	MOVAI	0xbb
000371   4873     rsubar  0x73             	RSUBAR	(_shut_down_ms_cnt + 1)
000372   e587     jbset   0x187, 0x2       	JBSET	PFLAG,2
000373   a376     goto    0x376            	GOTO	_00743_DS_
000374   3ca0     movai   0xa0             	MOVAI	0xa0
000375   4872     rsubar  0x72             	RSUBAR	_shut_down_ms_cnt
                                           _00743_DS_
000376   e187     jbset   0x187, 0         	JBSET	PFLAG,0
000377   a383     goto    0x383            	GOTO	_00733_DS_
                                           ;;genSkipc:3291: created from rifx:013B5EFC
                                           ;	.line	732; "MC32F7361.c"	LED_RED_OFF();
000378   c994     bset    0x194, 0x4       	BSET	_IOP1bits,4
                                           ;	.line	733; "MC32F7361.c"	LED_GREEN_OFF();
000379   c990     bset    0x190, 0x4       	BSET	_IOP0bits,4
                                           ;	.line	734; "MC32F7361.c"	HEATING_OFF(); // 
00037a   d594     bclr    0x194, 0x2       	BCLR	_IOP1bits,2
                                           ;	.line	738; "MC32F7361.c"	PWM0EC = 0;
00037b   dd98     bclr    0x198, 0x6       	BCLR	_T0CRbits,6
                                           ;	.line	739; "MC32F7361.c"	PWM1EC = 0;
00037c   dd9c     bclr    0x19c, 0x6       	BCLR	_T1CRbits,6
                                           ;	.line	740; "MC32F7361.c"	FLAG_IS_DEVICE_OPEN = 0;
00037d   d092     bclr    0x92, 0          	BCLR	_flag1,0
00037e   a383     goto    0x383            	GOTO	_00733_DS_
                                           _00731_DS_
                                           ;	.line	746; "MC32F7361.c"	shut_down_ms_cnt = 0;
00037f   7672     clrr    0x72             	CLRR	_shut_down_ms_cnt
000380   7673     clrr    0x73             	CLRR	(_shut_down_ms_cnt + 1)
000381   7674     clrr    0x74             	CLRR	(_shut_down_ms_cnt + 2)
000382   7675     clrr    0x75             	CLRR	(_shut_down_ms_cnt + 3)
                                           _00733_DS_
                                           ;	.line	748; "MC32F7361.c"	}
000383   000c     return                   	RETURN	
                                           ; exit point of _shutdown_scan_handle
                                           
                                           ;***
                                           ;  pBlock Stats: dbName = C
                                           ;***
                                           ;entry:  _turn_dir_scan_handle	;Function start
                                           ; 2 exit points
                                           ;has an exit
                                           ;functions called:
                                           ;   _delay_ms
                                           ;   _delay_ms
                                           ;   _delay_ms
                                           ;   _delay_ms
                                           ;1 compiler assigned register :
                                           ;   STK00
                                           ;; Starting pCode block
                                           _turn_dir_scan_handle	;Function start
                                           ; 2 exit points
                                           ;	.line	694; "MC32F7361.c"	if (FLAG_IS_DEVICE_OPEN)
000384   e092     jbset   0x92, 0          	JBSET	_flag1,0
000385   a3aa     goto    0x3aa            	GOTO	_00698_DS_
                                           ;;unsigned compare: left < lit(0xEA60=60000), size=4
                                           ;	.line	700; "MC32F7361.c"	if (turn_dir_ms_cnt >= ((u32)60 * 1000))
000386   3c00     movai   0                	MOVAI	0x00
000387   4871     rsubar  0x71             	RSUBAR	(_turn_dir_ms_cnt + 3)
000388   e587     jbset   0x187, 0x2       	JBSET	PFLAG,2
000389   a394     goto    0x394            	GOTO	_00714_DS_
00038a   3c00     movai   0                	MOVAI	0x00
00038b   4870     rsubar  0x70             	RSUBAR	(_turn_dir_ms_cnt + 2)
00038c   e587     jbset   0x187, 0x2       	JBSET	PFLAG,2
00038d   a394     goto    0x394            	GOTO	_00714_DS_
00038e   3cea     movai   0xea             	MOVAI	0xea
00038f   486f     rsubar  0x6f             	RSUBAR	(_turn_dir_ms_cnt + 1)
000390   e587     jbset   0x187, 0x2       	JBSET	PFLAG,2
000391   a394     goto    0x394            	GOTO	_00714_DS_
000392   3c60     movai   0x60             	MOVAI	0x60
000393   486e     rsubar  0x6e             	RSUBAR	_turn_dir_ms_cnt
                                           _00714_DS_
000394   e187     jbset   0x187, 0         	JBSET	PFLAG,0
000395   a3ae     goto    0x3ae            	GOTO	_00700_DS_
                                           ;;genSkipc:3291: created from rifx:013B5EFC
                                           ;	.line	702; "MC32F7361.c"	if (PWM1EC) // PWM1 
000396   ed9c     jbset   0x19c, 0x6       	JBSET	_T1CRbits,6
000397   a39f     goto    0x39f            	GOTO	_00693_DS_
                                           ;	.line	704; "MC32F7361.c"	PWM1EC = 0;
000398   dd9c     bclr    0x19c, 0x6       	BCLR	_T1CRbits,6
                                           ;	.line	705; "MC32F7361.c"	delay_ms(1000); // 
000399   3ce8     movai   0xe8             	MOVAI	0xe8
00039a   5606     movra   0x6              	MOVRA	STK00
00039b   3c03     movai   0x3              	MOVAI	0x03
00039c   8685     call    0x685            	CALL	_delay_ms
                                           ;	.line	706; "MC32F7361.c"	PWM0EC = 1;
00039d   cd98     bset    0x198, 0x6       	BSET	_T0CRbits,6
00039e   a3a5     goto    0x3a5            	GOTO	_00694_DS_
                                           _00693_DS_
                                           ;	.line	710; "MC32F7361.c"	PWM0EC = 0;     //
00039f   dd98     bclr    0x198, 0x6       	BCLR	_T0CRbits,6
                                           ;	.line	711; "MC32F7361.c"	delay_ms(1000); // 
0003a0   3ce8     movai   0xe8             	MOVAI	0xe8
0003a1   5606     movra   0x6              	MOVRA	STK00
0003a2   3c03     movai   0x3              	MOVAI	0x03
0003a3   8685     call    0x685            	CALL	_delay_ms
                                           ;	.line	712; "MC32F7361.c"	PWM1EC = 1;     //
0003a4   cd9c     bset    0x19c, 0x6       	BSET	_T1CRbits,6
                                           _00694_DS_
                                           ;	.line	714; "MC32F7361.c"	turn_dir_ms_cnt = 0;
0003a5   766e     clrr    0x6e             	CLRR	_turn_dir_ms_cnt
0003a6   766f     clrr    0x6f             	CLRR	(_turn_dir_ms_cnt + 1)
0003a7   7670     clrr    0x70             	CLRR	(_turn_dir_ms_cnt + 2)
0003a8   7671     clrr    0x71             	CLRR	(_turn_dir_ms_cnt + 3)
0003a9   a3ae     goto    0x3ae            	GOTO	_00700_DS_
                                           _00698_DS_
                                           ;	.line	719; "MC32F7361.c"	turn_dir_ms_cnt = 0; // 
0003aa   766e     clrr    0x6e             	CLRR	_turn_dir_ms_cnt
0003ab   766f     clrr    0x6f             	CLRR	(_turn_dir_ms_cnt + 1)
0003ac   7670     clrr    0x70             	CLRR	(_turn_dir_ms_cnt + 2)
0003ad   7671     clrr    0x71             	CLRR	(_turn_dir_ms_cnt + 3)
                                           _00700_DS_
                                           ;	.line	721; "MC32F7361.c"	}
0003ae   000c     return                   	RETURN	
                                           ; exit point of _turn_dir_scan_handle
                                           
                                           ;***
                                           ;  pBlock Stats: dbName = C
                                           ;***
                                           ;entry:  _adc_scan_handle	;Function start
                                           ; 2 exit points
                                           ;has an exit
                                           ;functions called:
                                           ;   _adc_sel_pin
                                           ;   _adc_get_val
                                           ;   _key_event_handle
                                           ;   _adc_sel_pin
                                           ;   _adc_get_val
                                           ;   _key_event_handle
                                           ;   _adc_sel_pin
                                           ;   _adc_get_val
                                           ;   _key_event_handle
                                           ;   _adc_sel_pin
                                           ;   _adc_get_val
                                           ;   _key_event_handle
                                           ;1 compiler assigned register :
                                           ;   STK00
                                           ;; Starting pCode block
                                           _adc_scan_handle	;Function start
                                           ; 2 exit points
                                           ;	.line	449; "MC32F7361.c"	volatile u8 cnt = 0;             // /
0003af   7629     clrr    0x29             	CLRR	_adc_scan_handle_cnt_65536_77
                                           ;	.line	450; "MC32F7361.c"	volatile u8 need_charge_cnt = 0; // 
0003b0   762a     clrr    0x2a             	CLRR	_adc_scan_handle_need_charge_cnt_65536_77
                                           ;	.line	452; "MC32F7361.c"	adc_bat_val = 0;
0003b1   7676     clrr    0x76             	CLRR	_adc_bat_val
0003b2   7677     clrr    0x77             	CLRR	(_adc_bat_val + 1)
0003b3   7678     clrr    0x78             	CLRR	(_adc_bat_val + 2)
0003b4   7679     clrr    0x79             	CLRR	(_adc_bat_val + 3)
                                           ;	.line	453; "MC32F7361.c"	adc_charging_val = 0;
0003b5   7680     clrr    0x80             	CLRR	_adc_charging_val
0003b6   7681     clrr    0x81             	CLRR	(_adc_charging_val + 1)
                                           ;	.line	455; "MC32F7361.c"	adc_sel_pin(ADC_PIN_P02_AN1); // 
0003b7   3c02     movai   0x2              	MOVAI	0x02
0003b8   8656     call    0x656            	CALL	_adc_sel_pin
                                           ;	.line	456; "MC32F7361.c"	for (i = 0; i < 10; i++)      //  // 55ms4.8ms
0003b9   768c     clrr    0x8c             	CLRR	_i
                                           ;;unsigned compare: left < lit(0xA=10), size=1
                                           _00524_DS_
0003ba   3c0a     movai   0xa              	MOVAI	0x0a
0003bb   488c     rsubar  0x8c             	RSUBAR	_i
0003bc   f187     jbclr   0x187, 0         	JBCLR	PFLAG,0
0003bd   a456     goto    0x456            	GOTO	_00483_DS_
                                           ;;genSkipc:3291: created from rifx:013B5EFC
                                           ;	.line	458; "MC32F7361.c"	adc_val = adc_get_val();
0003be   85b9     call    0x5b9            	CALL	_adc_get_val
0003bf   567f     movra   0x7f             	MOVRA	(_adc_val + 1)
0003c0   5806     movar   0x6              	MOVAR	STK00
0003c1   567e     movra   0x7e             	MOVRA	_adc_val
                                           ;	.line	460; "MC32F7361.c"	if (i == 0)
0003c2   3c00     movai   0                	MOVAI	0x00
0003c3   5c8c     orar    0x8c             	ORAR	_i
0003c4   e587     jbset   0x187, 0x2       	JBSET	PFLAG,2
0003c5   a3cc     goto    0x3cc            	GOTO	_00419_DS_
                                           ;	.line	462; "MC32F7361.c"	adc_bat_val = adc_val;
0003c6   587e     movar   0x7e             	MOVAR	_adc_val
0003c7   5676     movra   0x76             	MOVRA	_adc_bat_val
0003c8   587f     movar   0x7f             	MOVAR	(_adc_val + 1)
0003c9   5677     movra   0x77             	MOVRA	(_adc_bat_val + 1)
0003ca   7678     clrr    0x78             	CLRR	(_adc_bat_val + 2)
0003cb   7679     clrr    0x79             	CLRR	(_adc_bat_val + 3)
                                           _00419_DS_
                                           ;	.line	465; "MC32F7361.c"	if (FLAG_IS_IN_CHARGING)
0003cc   e492     jbset   0x92, 0x2        	JBSET	_flag1,2
0003cd   a414     goto    0x414            	GOTO	_00481_DS_
                                           ;;unsigned compare: left < lit(0xF52=3922), size=2
                                           ;	.line	468; "MC32F7361.c"	if (adc_val >= ADCDETECT_BAT_FULL + ADCDETECT_BAT_NULL_EX)
0003ce   3c0f     movai   0xf              	MOVAI	0x0f
0003cf   487f     rsubar  0x7f             	RSUBAR	(_adc_val + 1)
0003d0   e587     jbset   0x187, 0x2       	JBSET	PFLAG,2
0003d1   a3d4     goto    0x3d4            	GOTO	_00672_DS_
0003d2   3c52     movai   0x52             	MOVAI	0x52
0003d3   487e     rsubar  0x7e             	RSUBAR	_adc_val
                                           _00672_DS_
0003d4   e187     jbset   0x187, 0         	JBSET	PFLAG,0
0003d5   a3d8     goto    0x3d8            	GOTO	_00421_DS_
                                           ;;genSkipc:3291: created from rifx:013B5EFC
                                           ;	.line	471; "MC32F7361.c"	T2DATA = 0;
0003d6   77a3     clrr    0x1a3            	CLRR	_T2DATA
                                           ;	.line	472; "MC32F7361.c"	over_charging_cnt++;
0003d7   668e     incr    0x8e             	INCR	_over_charging_cnt
                                           ;;unsigned compare: left < lit(0xE3A=3642), size=2
                                           _00421_DS_
                                           ;	.line	475; "MC32F7361.c"	if (adc_val >= ADCDETECT_BAT_FULL) // 
0003d8   3c0e     movai   0xe              	MOVAI	0x0e
0003d9   487f     rsubar  0x7f             	RSUBAR	(_adc_val + 1)
0003da   e587     jbset   0x187, 0x2       	JBSET	PFLAG,2
0003db   a3de     goto    0x3de            	GOTO	_00673_DS_
0003dc   3c3a     movai   0x3a             	MOVAI	0x3a
0003dd   487e     rsubar  0x7e             	RSUBAR	_adc_val
                                           _00673_DS_
0003de   e187     jbset   0x187, 0         	JBSET	PFLAG,0
0003df   a3e2     goto    0x3e2            	GOTO	_00425_DS_
                                           ;;genSkipc:3291: created from rifx:013B5EFC
                                           ;	.line	477; "MC32F7361.c"	cnt++;
0003e0   6629     incr    0x29             	INCR	_adc_scan_handle_cnt_65536_77
0003e1   a3eb     goto    0x3eb            	GOTO	_00426_DS_
                                           ;;unsigned compare: left < lit(0xD90=3472), size=2
                                           _00425_DS_
                                           ;	.line	479; "MC32F7361.c"	else if (adc_val < ADCDETECT_BAT_WILL_FULL) // 
0003e2   3c0d     movai   0xd              	MOVAI	0x0d
0003e3   487f     rsubar  0x7f             	RSUBAR	(_adc_val + 1)
0003e4   e587     jbset   0x187, 0x2       	JBSET	PFLAG,2
0003e5   a3e8     goto    0x3e8            	GOTO	_00674_DS_
0003e6   3c90     movai   0x90             	MOVAI	0x90
0003e7   487e     rsubar  0x7e             	RSUBAR	_adc_val
                                           _00674_DS_
0003e8   f187     jbclr   0x187, 0         	JBCLR	PFLAG,0
0003e9   a3eb     goto    0x3eb            	GOTO	_00426_DS_
                                           ;;genSkipc:3291: created from rifx:013B5EFC
                                           ;	.line	481; "MC32F7361.c"	need_charge_cnt++;
0003ea   662a     incr    0x2a             	INCR	_adc_scan_handle_need_charge_cnt_65536_77
                                           _00426_DS_
                                           ;	.line	484; "MC32F7361.c"	if (flag_bat_is_empty)
0003eb   ee94     jbset   0x94, 0x7        	JBSET	_flag3,7
0003ec   a3f3     goto    0x3f3            	GOTO	_00449_DS_
                                           ;	.line	489; "MC32F7361.c"	LED_RED_OFF(); // 
0003ed   c994     bset    0x194, 0x4       	BSET	_IOP1bits,4
                                           ;	.line	490; "MC32F7361.c"	PWM2EC = 0;    // pwmPWM
0003ee   dda0     bclr    0x1a0, 0x6       	BCLR	_T2CRbits,6
                                           ;	.line	491; "MC32F7361.c"	T2DATA = 0;
0003ef   77a3     clrr    0x1a3            	CLRR	_T2DATA
                                           ;	.line	492; "MC32F7361.c"	FLAG_BAT_IS_NEED_CHARGE = 0;
0003f0   d892     bclr    0x92, 0x4        	BCLR	_flag1,4
                                           ;	.line	493; "MC32F7361.c"	FLAG_DURING_CHARGING_BAT_IS_NULL = 1; // 
0003f1   ce92     bset    0x92, 0x7        	BSET	_flag1,7
                                           ;	.line	495; "MC32F7361.c"	break;
0003f2   a456     goto    0x456            	GOTO	_00483_DS_
                                           ;;unsigned compare: left < lit(0x8=8), size=1
                                           _00449_DS_
                                           ;	.line	497; "MC32F7361.c"	else if (cnt >= 8 || over_charging_cnt >= 8)
0003f3   3c08     movai   0x8              	MOVAI	0x08
0003f4   4829     rsubar  0x29             	RSUBAR	_adc_scan_handle_cnt_65536_77
0003f5   f187     jbclr   0x187, 0         	JBCLR	PFLAG,0
0003f6   a3fb     goto    0x3fb            	GOTO	_00444_DS_
                                           ;;genSkipc:3291: created from rifx:013B5EFC
                                           ;;unsigned compare: left < lit(0x8=8), size=1
0003f7   3c08     movai   0x8              	MOVAI	0x08
0003f8   488e     rsubar  0x8e             	RSUBAR	_over_charging_cnt
0003f9   e187     jbset   0x187, 0         	JBSET	PFLAG,0
0003fa   a40c     goto    0x40c            	GOTO	_00445_DS_
                                           ;;genSkipc:3291: created from rifx:013B5EFC
                                           _00444_DS_
                                           ;	.line	500; "MC32F7361.c"	full_charge_cnt++;
0003fb   668f     incr    0x8f             	INCR	_full_charge_cnt
                                           ;;unsigned compare: left < lit(0x64=100), size=1
                                           ;	.line	501; "MC32F7361.c"	if (full_charge_cnt >= 100 || over_charging_cnt >= 8) // 5.5s
0003fc   3c64     movai   0x64             	MOVAI	0x64
0003fd   488f     rsubar  0x8f             	RSUBAR	_full_charge_cnt
0003fe   f187     jbclr   0x187, 0         	JBCLR	PFLAG,0
0003ff   a404     goto    0x404            	GOTO	_00436_DS_
                                           ;;genSkipc:3291: created from rifx:013B5EFC
                                           ;;unsigned compare: left < lit(0x8=8), size=1
000400   3c08     movai   0x8              	MOVAI	0x08
000401   488e     rsubar  0x8e             	RSUBAR	_over_charging_cnt
000402   e187     jbset   0x187, 0         	JBSET	PFLAG,0
000403   a453     goto    0x453            	GOTO	_00482_DS_
                                           ;;genSkipc:3291: created from rifx:013B5EFC
                                           _00436_DS_
                                           ;	.line	503; "MC32F7361.c"	full_charge_cnt = 0; //
000404   768f     clrr    0x8f             	CLRR	_full_charge_cnt
                                           ;	.line	505; "MC32F7361.c"	PWM2EC = 0; // pwm
000405   dda0     bclr    0x1a0, 0x6       	BCLR	_T2CRbits,6
                                           ;	.line	506; "MC32F7361.c"	T2DATA = 0;
000406   77a3     clrr    0x1a3            	CLRR	_T2DATA
                                           ;	.line	508; "MC32F7361.c"	FLAG_BAT_IS_NEED_CHARGE = 0;
000407   d892     bclr    0x92, 0x4        	BCLR	_flag1,4
                                           ;	.line	509; "MC32F7361.c"	FLAG_BAT_IS_FULL = 1;
000408   ca92     bset    0x92, 0x5        	BSET	_flag1,5
                                           ;	.line	511; "MC32F7361.c"	LED_RED_OFF();  // 
000409   c994     bset    0x194, 0x4       	BSET	_IOP1bits,4
                                           ;	.line	512; "MC32F7361.c"	LED_GREEN_ON(); // 
00040a   d990     bclr    0x190, 0x4       	BCLR	_IOP0bits,4
                                           ;	.line	513; "MC32F7361.c"	break;
00040b   a456     goto    0x456            	GOTO	_00483_DS_
                                           ;;unsigned compare: left < lit(0x8=8), size=1
                                           _00445_DS_
                                           ;	.line	516; "MC32F7361.c"	else if (need_charge_cnt >= 8)
00040c   3c08     movai   0x8              	MOVAI	0x08
00040d   482a     rsubar  0x2a             	RSUBAR	_adc_scan_handle_need_charge_cnt_65536_77
00040e   e187     jbset   0x187, 0         	JBSET	PFLAG,0
00040f   a453     goto    0x453            	GOTO	_00482_DS_
                                           ;;genSkipc:3291: created from rifx:013B5EFC
                                           ;	.line	521; "MC32F7361.c"	LED_GREEN_OFF();
000410   c990     bset    0x190, 0x4       	BSET	_IOP0bits,4
                                           ;	.line	522; "MC32F7361.c"	FLAG_BAT_IS_NEED_CHARGE = 1;
000411   c892     bset    0x92, 0x4        	BSET	_flag1,4
                                           ;	.line	523; "MC32F7361.c"	FLAG_BAT_IS_FULL = 0;
000412   da92     bclr    0x92, 0x5        	BCLR	_flag1,5
                                           ;	.line	524; "MC32F7361.c"	break;
000413   a456     goto    0x456            	GOTO	_00483_DS_
                                           _00481_DS_
                                           ;	.line	530; "MC32F7361.c"	if (flag_bat_is_empty == 0 && adc_val <= ADCDETECT_BAT_FULL - ((ADCDETECT_BAT_FULL - ADCDETECT_BAT_WILL_FULL) / 2))
000414   fe94     jbclr   0x94, 0x7        	JBCLR	_flag3,7
000415   a41f     goto    0x41f            	GOTO	_00452_DS_
                                           ;;swapping arguments (AOP_TYPEs 1/3)
                                           ;;unsigned compare: left >= lit(0xDE6=3558), size=2
000416   3c0d     movai   0xd              	MOVAI	0x0d
000417   487f     rsubar  0x7f             	RSUBAR	(_adc_val + 1)
000418   e587     jbset   0x187, 0x2       	JBSET	PFLAG,2
000419   a41c     goto    0x41c            	GOTO	_00680_DS_
00041a   3ce6     movai   0xe6             	MOVAI	0xe6
00041b   487e     rsubar  0x7e             	RSUBAR	_adc_val
                                           _00680_DS_
00041c   f187     jbclr   0x187, 0         	JBCLR	PFLAG,0
00041d   a41f     goto    0x41f            	GOTO	_00452_DS_
                                           ;;genSkipc:3291: created from rifx:013B5EFC
                                           ;	.line	532; "MC32F7361.c"	cnt++;
00041e   6629     incr    0x29             	INCR	_adc_scan_handle_cnt_65536_77
                                           ;;unsigned compare: left < lit(0x8=8), size=1
                                           _00452_DS_
                                           ;	.line	535; "MC32F7361.c"	if (cnt >= 8)
00041f   3c08     movai   0x8              	MOVAI	0x08
000420   4829     rsubar  0x29             	RSUBAR	_adc_scan_handle_cnt_65536_77
000421   e187     jbset   0x187, 0         	JBSET	PFLAG,0
000422   a426     goto    0x426            	GOTO	_00455_DS_
                                           ;;genSkipc:3291: created from rifx:013B5EFC
                                           ;	.line	538; "MC32F7361.c"	FLAG_BAT_IS_NEED_CHARGE = 1;
000423   c892     bset    0x92, 0x4        	BSET	_flag1,4
                                           ;	.line	539; "MC32F7361.c"	FLAG_BAT_IS_FULL = 0;
000424   da92     bclr    0x92, 0x5        	BCLR	_flag1,5
                                           ;	.line	540; "MC32F7361.c"	break;
000425   a456     goto    0x456            	GOTO	_00483_DS_
                                           _00455_DS_
                                           ;	.line	544; "MC32F7361.c"	flag_bat_is_empty == 0 &&  /*  */
000426   fe94     jbclr   0x94, 0x7        	JBCLR	_flag3,7
000427   a434     goto    0x434            	GOTO	_00462_DS_
                                           ;	.line	545; "MC32F7361.c"	FLAG_IS_DEVICE_OPEN &&     /*  */
000428   e092     jbset   0x92, 0          	JBSET	_flag1,0
000429   a434     goto    0x434            	GOTO	_00462_DS_
                                           ;;unsigned compare: left < lit(0xA93=2707), size=2
                                           ;	.line	547; "MC32F7361.c"	)
00042a   3c0a     movai   0xa              	MOVAI	0x0a
00042b   487f     rsubar  0x7f             	RSUBAR	(_adc_val + 1)
00042c   e587     jbset   0x187, 0x2       	JBSET	PFLAG,2
00042d   a430     goto    0x430            	GOTO	_00682_DS_
00042e   3c93     movai   0x93             	MOVAI	0x93
00042f   487e     rsubar  0x7e             	RSUBAR	_adc_val
                                           _00682_DS_
000430   f187     jbclr   0x187, 0         	JBCLR	PFLAG,0
000431   a434     goto    0x434            	GOTO	_00462_DS_
                                           ;;genSkipc:3291: created from rifx:013B5EFC
                                           ;	.line	549; "MC32F7361.c"	flag_tim_scan_maybe_shut_down = 1;
000432   c694     bset    0x94, 0x3        	BSET	_flag3,3
000433   a445     goto    0x445            	GOTO	_00463_DS_
                                           _00462_DS_
                                           ;	.line	551; "MC32F7361.c"	else if (flag_bat_is_empty == 0 &&
000434   fe94     jbclr   0x94, 0x7        	JBCLR	_flag3,7
000435   a443     goto    0x443            	GOTO	_00457_DS_
                                           ;	.line	552; "MC32F7361.c"	FLAG_IS_DEVICE_OPEN &&
000436   e092     jbset   0x92, 0          	JBSET	_flag1,0
000437   a443     goto    0x443            	GOTO	_00457_DS_
                                           ;;unsigned compare: left < lit(0xB15=2837), size=2
                                           ;	.line	553; "MC32F7361.c"	adc_val < LOW_BATTERY_AD_VAL)
000438   3c0b     movai   0xb              	MOVAI	0x0b
000439   487f     rsubar  0x7f             	RSUBAR	(_adc_val + 1)
00043a   e587     jbset   0x187, 0x2       	JBSET	PFLAG,2
00043b   a43e     goto    0x43e            	GOTO	_00683_DS_
00043c   3c15     movai   0x15             	MOVAI	0x15
00043d   487e     rsubar  0x7e             	RSUBAR	_adc_val
                                           _00683_DS_
00043e   f187     jbclr   0x187, 0         	JBCLR	PFLAG,0
00043f   a443     goto    0x443            	GOTO	_00457_DS_
                                           ;;genSkipc:3291: created from rifx:013B5EFC
                                           ;	.line	556; "MC32F7361.c"	flag_maybe_low_battery = 1;
000440   c494     bset    0x94, 0x2        	BSET	_flag3,2
                                           ;	.line	557; "MC32F7361.c"	flag_tim_scan_maybe_shut_down = 0;
000441   d694     bclr    0x94, 0x3        	BCLR	_flag3,3
000442   a445     goto    0x445            	GOTO	_00463_DS_
                                           _00457_DS_
                                           ;	.line	561; "MC32F7361.c"	flag_maybe_low_battery = 0;
000443   d494     bclr    0x94, 0x2        	BCLR	_flag3,2
                                           ;	.line	562; "MC32F7361.c"	flag_tim_scan_maybe_shut_down = 0;
000444   d694     bclr    0x94, 0x3        	BCLR	_flag3,3
                                           _00463_DS_
                                           ;	.line	566; "MC32F7361.c"	if (flag_is_needed_shut_down && FLAG_IS_DEVICE_OPEN)
000445   e894     jbset   0x94, 0x4        	JBSET	_flag3,4
000446   a453     goto    0x453            	GOTO	_00482_DS_
000447   e092     jbset   0x92, 0          	JBSET	_flag1,0
000448   a453     goto    0x453            	GOTO	_00482_DS_
                                           ;	.line	568; "MC32F7361.c"	flag_is_needed_shut_down = 0;
000449   d894     bclr    0x94, 0x4        	BCLR	_flag3,4
                                           ;	.line	572; "MC32F7361.c"	if (flag_is_low_battery)
00044a   e493     jbset   0x93, 0x2        	JBSET	_flag2,2
00044b   a44d     goto    0x44d            	GOTO	_00468_DS_
                                           ;	.line	575; "MC32F7361.c"	flag_is_low_battery = 0;
00044c   d493     bclr    0x93, 0x2        	BCLR	_flag2,2
                                           _00468_DS_
                                           ;	.line	579; "MC32F7361.c"	LED_GREEN_OFF();
00044d   c990     bset    0x190, 0x4       	BSET	_IOP0bits,4
                                           ;	.line	580; "MC32F7361.c"	LED_RED_OFF();
00044e   c994     bset    0x194, 0x4       	BSET	_IOP1bits,4
                                           ;	.line	581; "MC32F7361.c"	HEATING_OFF(); // 
00044f   d594     bclr    0x194, 0x2       	BCLR	_IOP1bits,2
                                           ;	.line	582; "MC32F7361.c"	FLAG_IS_DEVICE_OPEN = 0;
000450   d092     bclr    0x92, 0          	BCLR	_flag1,0
                                           ;	.line	588; "MC32F7361.c"	PWM0EC = 0;
000451   dd98     bclr    0x198, 0x6       	BCLR	_T0CRbits,6
                                           ;	.line	589; "MC32F7361.c"	PWM1EC = 0;
000452   dd9c     bclr    0x19c, 0x6       	BCLR	_T1CRbits,6
                                           _00482_DS_
                                           ;	.line	593; "MC32F7361.c"	key_event_handle();
000453   84b6     call    0x4b6            	CALL	_key_event_handle
                                           ;	.line	456; "MC32F7361.c"	for (i = 0; i < 10; i++)      //  // 55ms4.8ms
000454   668c     incr    0x8c             	INCR	_i
000455   a3ba     goto    0x3ba            	GOTO	_00524_DS_
                                           _00483_DS_
                                           ;	.line	596; "MC32F7361.c"	cnt = 0;
000456   7629     clrr    0x29             	CLRR	_adc_scan_handle_cnt_65536_77
                                           ;	.line	597; "MC32F7361.c"	adc_sel_pin(ADC_PIN_P00_AN0); // ( == USB-C / 2)
000457   3c01     movai   0x1              	MOVAI	0x01
000458   8656     call    0x656            	CALL	_adc_sel_pin
                                           ;	.line	598; "MC32F7361.c"	for (i = 0; i < 10; i++)
000459   768c     clrr    0x8c             	CLRR	_i
                                           ;;unsigned compare: left < lit(0xA=10), size=1
                                           _00527_DS_
00045a   3c0a     movai   0xa              	MOVAI	0x0a
00045b   488c     rsubar  0x8c             	RSUBAR	_i
00045c   f187     jbclr   0x187, 0         	JBCLR	PFLAG,0
00045d   a4b5     goto    0x4b5            	GOTO	_00529_DS_
                                           ;;genSkipc:3291: created from rifx:013B5EFC
                                           ;	.line	600; "MC32F7361.c"	adc_val = adc_get_val();
00045e   85b9     call    0x5b9            	CALL	_adc_get_val
00045f   567f     movra   0x7f             	MOVRA	(_adc_val + 1)
000460   5806     movar   0x6              	MOVAR	STK00
000461   567e     movra   0x7e             	MOVRA	_adc_val
                                           ;	.line	601; "MC32F7361.c"	if (flag_bat_is_empty) // 
000462   ee94     jbset   0x94, 0x7        	JBSET	_flag3,7
000463   a468     goto    0x468            	GOTO	_00485_DS_
                                           ;	.line	603; "MC32F7361.c"	adc_val = 4095; // if (adc_val < ADCDETECT_CHARING_THRESHOLD)
000464   3cff     movai   0xff             	MOVAI	0xff
000465   567e     movra   0x7e             	MOVRA	_adc_val
000466   3c0f     movai   0xf              	MOVAI	0x0f
000467   567f     movra   0x7f             	MOVRA	(_adc_val + 1)
                                           _00485_DS_
                                           ;	.line	606; "MC32F7361.c"	if (adc_charging_val != 0)
000468   5880     movar   0x80             	MOVAR	_adc_charging_val
000469   5c81     orar    0x81             	ORAR	(_adc_charging_val + 1)
00046a   f587     jbclr   0x187, 0x2       	JBCLR	PFLAG,2
00046b   a476     goto    0x476            	GOTO	_00487_DS_
                                           ;	.line	608; "MC32F7361.c"	adc_charging_val += adc_val;
00046c   587e     movar   0x7e             	MOVAR	_adc_val
00046d   7e80     addra   0x80             	ADDRA	_adc_charging_val
00046e   587f     movar   0x7f             	MOVAR	(_adc_val + 1)
00046f   f187     jbclr   0x187, 0         	JBCLR	PFLAG,0
000470   607f     jzar    0x7f             	JZAR	(_adc_val + 1)
000471   7e81     addra   0x81             	ADDRA	(_adc_charging_val + 1)
                                           ;;shiftRight_Left2ResultLit:5339: shCount=1, size=2, sign=0, same=1, offr=0
                                           ;	.line	609; "MC32F7361.c"	adc_charging_val /= 2;
000472   d187     bclr    0x187, 0         	BCLR	PFLAG,0
000473   4e81     rrr     0x81             	RRR	(_adc_charging_val + 1)
000474   4e80     rrr     0x80             	RRR	_adc_charging_val
000475   a47c     goto    0x47c            	GOTO	_00488_DS_
                                           _00487_DS_
                                           ;	.line	613; "MC32F7361.c"	adc_charging_val += adc_val;
000476   587e     movar   0x7e             	MOVAR	_adc_val
000477   7e80     addra   0x80             	ADDRA	_adc_charging_val
000478   587f     movar   0x7f             	MOVAR	(_adc_val + 1)
000479   f187     jbclr   0x187, 0         	JBCLR	PFLAG,0
00047a   607f     jzar    0x7f             	JZAR	(_adc_val + 1)
00047b   7e81     addra   0x81             	ADDRA	(_adc_charging_val + 1)
                                           _00488_DS_
                                           ;	.line	616; "MC32F7361.c"	if (FLAG_IS_IN_CHARGING)
00047c   e492     jbset   0x92, 0x2        	JBSET	_flag1,2
00047d   a498     goto    0x498            	GOTO	_00520_DS_
                                           ;;unsigned compare: left < lit(0x800=2048), size=2
                                           ;	.line	619; "MC32F7361.c"	if (adc_val < ADCDETECT_CHARING_THRESHOLD)
00047e   3c08     movai   0x8              	MOVAI	0x08
00047f   487f     rsubar  0x7f             	RSUBAR	(_adc_val + 1)
000480   e587     jbset   0x187, 0x2       	JBSET	PFLAG,2
000481   a484     goto    0x484            	GOTO	_00685_DS_
000482   3c00     movai   0                	MOVAI	0x00
000483   487e     rsubar  0x7e             	RSUBAR	_adc_val
                                           _00685_DS_
000484   f187     jbclr   0x187, 0         	JBCLR	PFLAG,0
000485   a487     goto    0x487            	GOTO	_00490_DS_
                                           ;;genSkipc:3291: created from rifx:013B5EFC
                                           ;	.line	621; "MC32F7361.c"	cnt++;
000486   6629     incr    0x29             	INCR	_adc_scan_handle_cnt_65536_77
                                           ;;unsigned compare: left < lit(0x8=8), size=1
                                           _00490_DS_
                                           ;	.line	624; "MC32F7361.c"	if (cnt >= 8)
000487   3c08     movai   0x8              	MOVAI	0x08
000488   4829     rsubar  0x29             	RSUBAR	_adc_scan_handle_cnt_65536_77
000489   e187     jbset   0x187, 0         	JBSET	PFLAG,0
00048a   a492     goto    0x492            	GOTO	_00498_DS_
                                           ;;genSkipc:3291: created from rifx:013B5EFC
                                           ;	.line	627; "MC32F7361.c"	FLAG_IS_IN_CHARGING = 0;
00048b   d492     bclr    0x92, 0x2        	BCLR	_flag1,2
                                           ;	.line	629; "MC32F7361.c"	LED_GREEN_OFF();
00048c   c990     bset    0x190, 0x4       	BSET	_IOP0bits,4
                                           ;	.line	630; "MC32F7361.c"	LED_RED_OFF(); // 
00048d   c994     bset    0x194, 0x4       	BSET	_IOP1bits,4
                                           ;	.line	631; "MC32F7361.c"	PWM2EC = 0;    // pwm
00048e   dda0     bclr    0x1a0, 0x6       	BCLR	_T2CRbits,6
                                           ;	.line	632; "MC32F7361.c"	T2DATA = 0;
00048f   77a3     clrr    0x1a3            	CLRR	_T2DATA
                                           ;	.line	634; "MC32F7361.c"	FLAG_DURING_CHARGING_BAT_IS_NULL = 0; // 
000490   de92     bclr    0x92, 0x7        	BCLR	_flag1,7
                                           ;	.line	635; "MC32F7361.c"	break;
000491   a4b5     goto    0x4b5            	GOTO	_00529_DS_
                                           _00498_DS_
                                           ;	.line	638; "MC32F7361.c"	if (FLAG_IS_DEVICE_OPEN)
000492   f092     jbclr   0x92, 0          	JBCLR	_flag1,0
000493   a4b2     goto    0x4b2            	GOTO	_00521_DS_
                                           ;	.line	643; "MC32F7361.c"	if (FLAG_BAT_IS_FULL)
000494   fa92     jbclr   0x92, 0x5        	JBCLR	_flag1,5
000495   a4b2     goto    0x4b2            	GOTO	_00521_DS_
                                           ;	.line	651; "MC32F7361.c"	LED_GREEN_OFF();
000496   c990     bset    0x190, 0x4       	BSET	_IOP0bits,4
000497   a4b2     goto    0x4b2            	GOTO	_00521_DS_
                                           _00520_DS_
                                           ;	.line	658; "MC32F7361.c"	if (flag_bat_is_empty == 0 && adc_val >= ADCDETECT_CHARING_THRESHOLD)
000498   fe94     jbclr   0x94, 0x7        	JBCLR	_flag3,7
000499   a4a3     goto    0x4a3            	GOTO	_00509_DS_
                                           ;;unsigned compare: left < lit(0x800=2048), size=2
00049a   3c08     movai   0x8              	MOVAI	0x08
00049b   487f     rsubar  0x7f             	RSUBAR	(_adc_val + 1)
00049c   e587     jbset   0x187, 0x2       	JBSET	PFLAG,2
00049d   a4a0     goto    0x4a0            	GOTO	_00687_DS_
00049e   3c00     movai   0                	MOVAI	0x00
00049f   487e     rsubar  0x7e             	RSUBAR	_adc_val
                                           _00687_DS_
0004a0   e187     jbset   0x187, 0         	JBSET	PFLAG,0
0004a1   a4a3     goto    0x4a3            	GOTO	_00509_DS_
                                           ;;genSkipc:3291: created from rifx:013B5EFC
                                           ;	.line	660; "MC32F7361.c"	cnt++;
0004a2   6629     incr    0x29             	INCR	_adc_scan_handle_cnt_65536_77
                                           ;;unsigned compare: left < lit(0x8=8), size=1
                                           _00509_DS_
                                           ;	.line	663; "MC32F7361.c"	if (cnt >= 8)
0004a3   3c08     movai   0x8              	MOVAI	0x08
0004a4   4829     rsubar  0x29             	RSUBAR	_adc_scan_handle_cnt_65536_77
0004a5   e187     jbset   0x187, 0         	JBSET	PFLAG,0
0004a6   a4b2     goto    0x4b2            	GOTO	_00521_DS_
                                           ;;genSkipc:3291: created from rifx:013B5EFC
                                           ;	.line	667; "MC32F7361.c"	full_charge_cnt = 0;
0004a7   768f     clrr    0x8f             	CLRR	_full_charge_cnt
                                           ;	.line	668; "MC32F7361.c"	over_charging_cnt = 0;
0004a8   768e     clrr    0x8e             	CLRR	_over_charging_cnt
                                           ;	.line	670; "MC32F7361.c"	FLAG_IS_IN_CHARGING = 1;
0004a9   c492     bset    0x92, 0x2        	BSET	_flag1,2
                                           ;	.line	671; "MC32F7361.c"	PWM2EC = 1; // pwm
0004aa   cda0     bset    0x1a0, 0x6       	BSET	_T2CRbits,6
                                           ;	.line	674; "MC32F7361.c"	LED_GREEN_OFF();
0004ab   c990     bset    0x190, 0x4       	BSET	_IOP0bits,4
                                           ;	.line	675; "MC32F7361.c"	HEATING_OFF(); // 
0004ac   d594     bclr    0x194, 0x2       	BCLR	_IOP1bits,2
                                           ;	.line	676; "MC32F7361.c"	FLAG_IS_DEVICE_OPEN = 0;
0004ad   d092     bclr    0x92, 0          	BCLR	_flag1,0
                                           ;	.line	680; "MC32F7361.c"	PWM0EC = 0;
0004ae   dd98     bclr    0x198, 0x6       	BCLR	_T0CRbits,6
                                           ;	.line	681; "MC32F7361.c"	PWM1EC = 0;
0004af   dd9c     bclr    0x19c, 0x6       	BCLR	_T1CRbits,6
                                           ;	.line	683; "MC32F7361.c"	flag_is_low_battery = 0; // 
0004b0   d493     bclr    0x93, 0x2        	BCLR	_flag2,2
                                           ;	.line	684; "MC32F7361.c"	break;
0004b1   a4b5     goto    0x4b5            	GOTO	_00529_DS_
                                           _00521_DS_
                                           ;	.line	688; "MC32F7361.c"	key_event_handle();
0004b2   84b6     call    0x4b6            	CALL	_key_event_handle
                                           ;	.line	598; "MC32F7361.c"	for (i = 0; i < 10; i++)
0004b3   668c     incr    0x8c             	INCR	_i
0004b4   a45a     goto    0x45a            	GOTO	_00527_DS_
                                           _00529_DS_
                                           ;	.line	690; "MC32F7361.c"	}
0004b5   000c     return                   	RETURN	
                                           ; exit point of _adc_scan_handle
                                           
                                           ;***
                                           ;  pBlock Stats: dbName = C
                                           ;***
                                           ;entry:  _key_event_handle	;Function start
                                           ; 2 exit points
                                           ;has an exit
                                           ;; Starting pCode block
                                           _key_event_handle	;Function start
                                           ; 2 exit points
                                           ;	.line	375; "MC32F7361.c"	if (key_event == KEY_EVENT_NONE)
0004b6   3c00     movai   0                	MOVAI	0x00
0004b7   5c88     orar    0x88             	ORAR	_key_event
0004b8   e587     jbset   0x187, 0x2       	JBSET	PFLAG,2
0004b9   a4bb     goto    0x4bb            	GOTO	_00331_DS_
                                           ;	.line	377; "MC32F7361.c"	return;
0004ba   a4f8     goto    0x4f8            	GOTO	_00375_DS_
                                           _00331_DS_
                                           ;	.line	380; "MC32F7361.c"	sub_mode_status = SUB_MODE_NONE; // 
0004bb   768a     clrr    0x8a             	CLRR	_sub_mode_status
                                           ;	.line	382; "MC32F7361.c"	if (FLAG_IS_DEVICE_OPEN)
0004bc   e092     jbset   0x92, 0          	JBSET	_flag1,0
0004bd   a4eb     goto    0x4eb            	GOTO	_00373_DS_
                                           ;	.line	385; "MC32F7361.c"	if (KEY_EVENT_MODE_PRESS == key_event || KEY_EVENT_MODE_HOLD == key_event)
0004be   5888     movar   0x88             	MOVAR	_key_event
0004bf   3901     xorai   0x1              	XORAI	0x01
0004c0   e587     jbset   0x187, 0x2       	JBSET	PFLAG,2
0004c1   a4c3     goto    0x4c3            	GOTO	_00413_DS_
0004c2   a4c7     goto    0x4c7            	GOTO	_00357_DS_
                                           _00413_DS_
0004c3   5888     movar   0x88             	MOVAR	_key_event
0004c4   3902     xorai   0x2              	XORAI	0x02
0004c5   e587     jbset   0x187, 0x2       	JBSET	PFLAG,2
0004c6   a4f7     goto    0x4f7            	GOTO	_00374_DS_
                                           _00357_DS_
                                           ;	.line	387; "MC32F7361.c"	if (MODE_1 == mode_flag)
0004c7   3c00     movai   0                	MOVAI	0x00
0004c8   5c89     orar    0x89             	ORAR	_mode_flag
0004c9   e587     jbset   0x187, 0x2       	JBSET	PFLAG,2
0004ca   a4d0     goto    0x4d0            	GOTO	_00355_DS_
                                           ;	.line	394; "MC32F7361.c"	sub_mode_status = SUB_MODE_1_BEGIN;
0004cb   3c01     movai   0x1              	MOVAI	0x01
0004cc   568a     movra   0x8a             	MOVRA	_sub_mode_status
                                           ;	.line	395; "MC32F7361.c"	mode_flag = MODE_2;
0004cd   3c01     movai   0x1              	MOVAI	0x01
0004ce   5689     movra   0x89             	MOVRA	_mode_flag
0004cf   a4e6     goto    0x4e6            	GOTO	_00356_DS_
                                           _00355_DS_
                                           ;	.line	397; "MC32F7361.c"	else if (MODE_2 == mode_flag)
0004d0   5889     movar   0x89             	MOVAR	_mode_flag
0004d1   3901     xorai   0x1              	XORAI	0x01
0004d2   e587     jbset   0x187, 0x2       	JBSET	PFLAG,2
0004d3   a4d8     goto    0x4d8            	GOTO	_00352_DS_
                                           ;	.line	399; "MC32F7361.c"	HEATING_OFF();
0004d4   d594     bclr    0x194, 0x2       	BCLR	_IOP1bits,2
                                           ;	.line	400; "MC32F7361.c"	mode_flag = MODE_3;
0004d5   3c02     movai   0x2              	MOVAI	0x02
0004d6   5689     movra   0x89             	MOVRA	_mode_flag
0004d7   a4e6     goto    0x4e6            	GOTO	_00356_DS_
                                           _00352_DS_
                                           ;	.line	402; "MC32F7361.c"	else if (MODE_3 == mode_flag)
0004d8   5889     movar   0x89             	MOVAR	_mode_flag
0004d9   3902     xorai   0x2              	XORAI	0x02
0004da   e587     jbset   0x187, 0x2       	JBSET	PFLAG,2
0004db   a4e6     goto    0x4e6            	GOTO	_00356_DS_
                                           ;	.line	405; "MC32F7361.c"	HEATING_OFF(); // 
0004dc   d594     bclr    0x194, 0x2       	BCLR	_IOP1bits,2
                                           ;	.line	407; "MC32F7361.c"	if (flag_is_low_battery)
0004dd   e493     jbset   0x93, 0x2        	JBSET	_flag2,2
0004de   a4e1     goto    0x4e1            	GOTO	_00343_DS_
                                           ;	.line	410; "MC32F7361.c"	flag_is_low_battery = 0;
0004df   d493     bclr    0x93, 0x2        	BCLR	_flag2,2
                                           ;	.line	412; "MC32F7361.c"	LED_RED_OFF(); // LED
0004e0   c994     bset    0x194, 0x4       	BSET	_IOP1bits,4
                                           _00343_DS_
                                           ;	.line	415; "MC32F7361.c"	LED_GREEN_OFF();
0004e1   c990     bset    0x190, 0x4       	BSET	_IOP0bits,4
                                           ;	.line	416; "MC32F7361.c"	LED_RED_OFF();
0004e2   c994     bset    0x194, 0x4       	BSET	_IOP1bits,4
                                           ;	.line	421; "MC32F7361.c"	PWM0EC = 0;
0004e3   dd98     bclr    0x198, 0x6       	BCLR	_T0CRbits,6
                                           ;	.line	422; "MC32F7361.c"	PWM1EC = 0;
0004e4   dd9c     bclr    0x19c, 0x6       	BCLR	_T1CRbits,6
                                           ;	.line	423; "MC32F7361.c"	FLAG_IS_DEVICE_OPEN = 0;
0004e5   d092     bclr    0x92, 0          	BCLR	_flag1,0
                                           _00356_DS_
                                           ;	.line	426; "MC32F7361.c"	turn_dir_ms_cnt = 0; // 
0004e6   766e     clrr    0x6e             	CLRR	_turn_dir_ms_cnt
0004e7   766f     clrr    0x6f             	CLRR	(_turn_dir_ms_cnt + 1)
0004e8   7670     clrr    0x70             	CLRR	(_turn_dir_ms_cnt + 2)
0004e9   7671     clrr    0x71             	CLRR	(_turn_dir_ms_cnt + 3)
0004ea   a4f7     goto    0x4f7            	GOTO	_00374_DS_
                                           _00373_DS_
                                           ;	.line	432; "MC32F7361.c"	if (KEY_EVENT_MODE_HOLD == key_event && 0 == FLAG_IS_IN_CHARGING)
0004eb   5888     movar   0x88             	MOVAR	_key_event
0004ec   3902     xorai   0x2              	XORAI	0x02
0004ed   e587     jbset   0x187, 0x2       	JBSET	PFLAG,2
0004ee   a4f7     goto    0x4f7            	GOTO	_00374_DS_
0004ef   f492     jbclr   0x92, 0x2        	JBCLR	_flag1,2
0004f0   a4f7     goto    0x4f7            	GOTO	_00374_DS_
                                           ;	.line	434; "MC32F7361.c"	LED_RED_OFF();
0004f1   c994     bset    0x194, 0x4       	BSET	_IOP1bits,4
                                           ;	.line	435; "MC32F7361.c"	LED_GREEN_OFF();
0004f2   c990     bset    0x190, 0x4       	BSET	_IOP0bits,4
                                           ;	.line	436; "MC32F7361.c"	FLAG_IS_DEVICE_OPEN = 1;
0004f3   c092     bset    0x92, 0          	BSET	_flag1,0
                                           ;	.line	437; "MC32F7361.c"	PWM1EC = 1;
0004f4   cd9c     bset    0x19c, 0x6       	BSET	_T1CRbits,6
                                           ;	.line	438; "MC32F7361.c"	HEATING_ON();
0004f5   c594     bset    0x194, 0x2       	BSET	_IOP1bits,2
                                           ;	.line	439; "MC32F7361.c"	mode_flag = MODE_1; //  MODE_2
0004f6   7689     clrr    0x89             	CLRR	_mode_flag
                                           _00374_DS_
                                           ;	.line	444; "MC32F7361.c"	key_event = KEY_EVENT_NONE;
0004f7   7688     clrr    0x88             	CLRR	_key_event
                                           _00375_DS_
                                           ;	.line	445; "MC32F7361.c"	}
0004f8   000c     return                   	RETURN	
                                           ; exit point of _key_event_handle
                                           
                                           ;***
                                           ;  pBlock Stats: dbName = C
                                           ;***
                                           ;entry:  _key_scan	;Function start
                                           ; 2 exit points
                                           ;has an exit
                                           ;1 compiler assigned register :
                                           ;   r0x1067
                                           ;; Starting pCode block
                                           _key_scan	;Function start
                                           ; 2 exit points
                                           ;	.line	272; "MC32F7361.c"	volatile u8 cur_key_id = KEY_ID_NONE;
0004f9   7623     clrr    0x23             	CLRR	_key_scan_cur_key_id_65536_28
                                           ;	.line	277; "MC32F7361.c"	if (1 == KEY_MODE_PIN) // 
0004fa   7616     clrr    0x16             	CLRR	r0x1067
0004fb   f394     jbclr   0x194, 0x1       	JBCLR	_IOP1bits,1
0004fc   6616     incr    0x16             	INCR	r0x1067
0004fd   5816     movar   0x16             	MOVAR	r0x1067
0004fe   3901     xorai   0x1              	XORAI	0x01
0004ff   e587     jbset   0x187, 0x2       	JBSET	PFLAG,2
000500   a503     goto    0x503            	GOTO	_00214_DS_
                                           ;	.line	279; "MC32F7361.c"	cur_key_id = KEY_ID_MODE;
000501   3c01     movai   0x1              	MOVAI	0x01
000502   5623     movra   0x23             	MOVRA	_key_scan_cur_key_id_65536_28
                                           _00214_DS_
                                           ;	.line	282; "MC32F7361.c"	if (cur_key_id != filter_key_id)
000503   5825     movar   0x25             	MOVAR	_key_scan_filter_key_id_65536_28
000504   4023     xorar   0x23             	XORAR	_key_scan_cur_key_id_65536_28
000505   e587     jbset   0x187, 0x2       	JBSET	PFLAG,2
000506   a508     goto    0x508            	GOTO	_00323_DS_
000507   a50c     goto    0x50c            	GOTO	_00216_DS_
                                           _00323_DS_
                                           ;	.line	285; "MC32F7361.c"	filter_cnt = 0;
000508   7624     clrr    0x24             	CLRR	_key_scan_filter_cnt_65536_28
                                           ;	.line	286; "MC32F7361.c"	filter_key_id = cur_key_id;
000509   5823     movar   0x23             	MOVAR	_key_scan_cur_key_id_65536_28
00050a   5625     movra   0x25             	MOVRA	_key_scan_filter_key_id_65536_28
                                           ;	.line	287; "MC32F7361.c"	return;
00050b   a55c     goto    0x55c            	GOTO	_00253_DS_
                                           ;;unsigned compare: left < lit(0x3=3), size=1
                                           _00216_DS_
                                           ;	.line	290; "MC32F7361.c"	if (filter_cnt < KEY_FILTER_TIMES)
00050c   3c03     movai   0x3              	MOVAI	0x03
00050d   4824     rsubar  0x24             	RSUBAR	_key_scan_filter_cnt_65536_28
00050e   f187     jbclr   0x187, 0         	JBCLR	PFLAG,0
00050f   a512     goto    0x512            	GOTO	_00218_DS_
                                           ;;genSkipc:3291: created from rifx:013B5EFC
                                           ;	.line	294; "MC32F7361.c"	filter_cnt++;
000510   6624     incr    0x24             	INCR	_key_scan_filter_cnt_65536_28
                                           ;	.line	295; "MC32F7361.c"	return;
000511   a55c     goto    0x55c            	GOTO	_00253_DS_
                                           _00218_DS_
                                           ;	.line	300; "MC32F7361.c"	if (last_key_id != cur_key_id)
000512   5823     movar   0x23             	MOVAR	_key_scan_cur_key_id_65536_28
000513   4028     xorar   0x28             	XORAR	_key_scan_last_key_id_65536_28
000514   e587     jbset   0x187, 0x2       	JBSET	PFLAG,2
000515   a517     goto    0x517            	GOTO	_00325_DS_
000516   a532     goto    0x532            	GOTO	_00251_DS_
                                           _00325_DS_
                                           ;	.line	302; "MC32F7361.c"	if (last_key_id == KEY_ID_NONE)
000517   3c00     movai   0                	MOVAI	0x00
000518   5c28     orar    0x28             	ORAR	_key_scan_last_key_id_65536_28
000519   e587     jbset   0x187, 0x2       	JBSET	PFLAG,2
00051a   a51d     goto    0x51d            	GOTO	_00229_DS_
                                           ;	.line	305; "MC32F7361.c"	press_cnt = 0;
00051b   7626     clrr    0x26             	CLRR	_key_scan_press_cnt_65536_28
00051c   a55a     goto    0x55a            	GOTO	_00252_DS_
                                           _00229_DS_
                                           ;	.line	307; "MC32F7361.c"	else if (cur_key_id == KEY_ID_NONE)
00051d   3c00     movai   0                	MOVAI	0x00
00051e   5c23     orar    0x23             	ORAR	_key_scan_cur_key_id_65536_28
00051f   e587     jbset   0x187, 0x2       	JBSET	PFLAG,2
000520   a55a     goto    0x55a            	GOTO	_00252_DS_
                                           ;;unsigned compare: left < lit(0x4B=75), size=1
                                           ;	.line	310; "MC32F7361.c"	if (press_cnt < 75)
000521   3c4b     movai   0x4b             	MOVAI	0x4b
000522   4826     rsubar  0x26             	RSUBAR	_key_scan_press_cnt_65536_28
000523   f187     jbclr   0x187, 0         	JBCLR	PFLAG,0
000524   a52c     goto    0x52c            	GOTO	_00224_DS_
                                           ;;genSkipc:3291: created from rifx:013B5EFC
                                           ;	.line	313; "MC32F7361.c"	if (KEY_ID_MODE == last_key_id)
000525   5828     movar   0x28             	MOVAR	_key_scan_last_key_id_65536_28
000526   3901     xorai   0x1              	XORAI	0x01
000527   e587     jbset   0x187, 0x2       	JBSET	PFLAG,2
000528   a55a     goto    0x55a            	GOTO	_00252_DS_
                                           ;	.line	316; "MC32F7361.c"	key_event = KEY_EVENT_MODE_PRESS;
000529   3c01     movai   0x1              	MOVAI	0x01
00052a   5688     movra   0x88             	MOVRA	_key_event
00052b   a55a     goto    0x55a            	GOTO	_00252_DS_
                                           _00224_DS_
                                           ;	.line	322; "MC32F7361.c"	if (KEY_ID_MODE == last_key_id)
00052c   5828     movar   0x28             	MOVAR	_key_scan_last_key_id_65536_28
00052d   3901     xorai   0x1              	XORAI	0x01
00052e   e587     jbset   0x187, 0x2       	JBSET	PFLAG,2
00052f   a55a     goto    0x55a            	GOTO	_00252_DS_
                                           ;	.line	324; "MC32F7361.c"	flag_is_key_mode_hold = 0;
000530   7627     clrr    0x27             	CLRR	_key_scan_flag_is_key_mode_hold_65536_28
000531   a55a     goto    0x55a            	GOTO	_00252_DS_
                                           _00251_DS_
                                           ;	.line	329; "MC32F7361.c"	else if (cur_key_id != KEY_ID_NONE)
000532   3c00     movai   0                	MOVAI	0x00
000533   5c23     orar    0x23             	ORAR	_key_scan_cur_key_id_65536_28
000534   f587     jbclr   0x187, 0x2       	JBCLR	PFLAG,2
000535   a55a     goto    0x55a            	GOTO	_00252_DS_
                                           ;;unsigned compare: left < lit(0xFF=255), size=1
                                           ;	.line	332; "MC32F7361.c"	if (press_cnt < 255)
000536   3cff     movai   0xff             	MOVAI	0xff
000537   4826     rsubar  0x26             	RSUBAR	_key_scan_press_cnt_65536_28
000538   f187     jbclr   0x187, 0         	JBCLR	PFLAG,0
000539   a53b     goto    0x53b            	GOTO	_00232_DS_
                                           ;;genSkipc:3291: created from rifx:013B5EFC
                                           ;	.line	333; "MC32F7361.c"	press_cnt++;
00053a   6626     incr    0x26             	INCR	_key_scan_press_cnt_65536_28
                                           _00232_DS_
                                           ;	.line	335; "MC32F7361.c"	if (KEY_ID_MODE == cur_key_id)
00053b   5823     movar   0x23             	MOVAR	_key_scan_cur_key_id_65536_28
00053c   3901     xorai   0x1              	XORAI	0x01
00053d   e587     jbset   0x187, 0x2       	JBSET	PFLAG,2
00053e   a55a     goto    0x55a            	GOTO	_00252_DS_
                                           ;	.line	337; "MC32F7361.c"	if (FLAG_IS_DEVICE_OPEN)
00053f   e092     jbset   0x92, 0          	JBSET	_flag1,0
000540   a54e     goto    0x54e            	GOTO	_00244_DS_
                                           ;;unsigned compare: left < lit(0xC8=200), size=1
                                           ;	.line	339; "MC32F7361.c"	if (press_cnt >= 200) // 2000ms
000541   3cc8     movai   0xc8             	MOVAI	0xc8
000542   4826     rsubar  0x26             	RSUBAR	_key_scan_press_cnt_65536_28
000543   e187     jbset   0x187, 0         	JBSET	PFLAG,0
000544   a55a     goto    0x55a            	GOTO	_00252_DS_
                                           ;;genSkipc:3291: created from rifx:013B5EFC
                                           ;	.line	341; "MC32F7361.c"	if (flag_is_key_mode_hold)
000545   3c00     movai   0                	MOVAI	0x00
000546   5c27     orar    0x27             	ORAR	_key_scan_flag_is_key_mode_hold_65536_28
000547   e587     jbset   0x187, 0x2       	JBSET	PFLAG,2
000548   a55a     goto    0x55a            	GOTO	_00252_DS_
                                           ;	.line	346; "MC32F7361.c"	key_event = KEY_EVENT_MODE_HOLD;
000549   3c02     movai   0x2              	MOVAI	0x02
00054a   5688     movra   0x88             	MOVRA	_key_event
                                           ;	.line	347; "MC32F7361.c"	flag_is_key_mode_hold = 1;
00054b   3c01     movai   0x1              	MOVAI	0x01
00054c   5627     movra   0x27             	MOVRA	_key_scan_flag_is_key_mode_hold_65536_28
00054d   a55a     goto    0x55a            	GOTO	_00252_DS_
                                           ;;unsigned compare: left < lit(0x64=100), size=1
                                           _00244_DS_
                                           ;	.line	354; "MC32F7361.c"	if (press_cnt >= 100) // 1000ms1024ms
00054e   3c64     movai   0x64             	MOVAI	0x64
00054f   4826     rsubar  0x26             	RSUBAR	_key_scan_press_cnt_65536_28
000550   e187     jbset   0x187, 0         	JBSET	PFLAG,0
000551   a55a     goto    0x55a            	GOTO	_00252_DS_
                                           ;;genSkipc:3291: created from rifx:013B5EFC
                                           ;	.line	356; "MC32F7361.c"	if (flag_is_key_mode_hold)
000552   3c00     movai   0                	MOVAI	0x00
000553   5c27     orar    0x27             	ORAR	_key_scan_flag_is_key_mode_hold_65536_28
000554   e587     jbset   0x187, 0x2       	JBSET	PFLAG,2
000555   a55a     goto    0x55a            	GOTO	_00252_DS_
                                           ;	.line	361; "MC32F7361.c"	key_event = KEY_EVENT_MODE_HOLD;
000556   3c02     movai   0x2              	MOVAI	0x02
000557   5688     movra   0x88             	MOVRA	_key_event
                                           ;	.line	362; "MC32F7361.c"	flag_is_key_mode_hold = 1;
000558   3c01     movai   0x1              	MOVAI	0x01
000559   5627     movra   0x27             	MOVRA	_key_scan_flag_is_key_mode_hold_65536_28
                                           _00252_DS_
                                           ;	.line	369; "MC32F7361.c"	last_key_id = cur_key_id;
00055a   5823     movar   0x23             	MOVAR	_key_scan_cur_key_id_65536_28
00055b   5628     movra   0x28             	MOVRA	_key_scan_last_key_id_65536_28
                                           _00253_DS_
                                           ;	.line	370; "MC32F7361.c"	}
00055c   000c     return                   	RETURN	
                                           ; exit point of _key_scan
                                           
                                           ;***
                                           ;  pBlock Stats: dbName = C
                                           ;***
                                           ;entry:  _Sys_Init	;Function start
                                           ; 2 exit points
                                           ;has an exit
                                           ;functions called:
                                           ;   _CLR_RAM
                                           ;   _adc_config
                                           ;   _delay_ms
                                           ;   _CLR_RAM
                                           ;   _adc_config
                                           ;   _delay_ms
                                           ;1 compiler assigned register :
                                           ;   STK00
                                           ;; Starting pCode block
                                           _Sys_Init	;Function start
                                           ; 2 exit points
                                           ;	.line	166; "MC32F7361.c"	GIE = 0;
00055d   df88     bclr    0x188, 0x7       	BCLR	_MCRbits,7
                                           ;	.line	167; "MC32F7361.c"	CLR_RAM();
00055e   8679     call    0x679            	CALL	_CLR_RAM
                                           ;	.line	171; "MC32F7361.c"	IOP0 = (0x01 << 4); // LED
00055f   3c10     movai   0x10             	MOVAI	0x10
000560   5790     movra   0x190            	MOVRA	_IOP0
                                           ;	.line	172; "MC32F7361.c"	OEP0 = 0x3F;        // io 1:out  0:in
000561   3c3f     movai   0x3f             	MOVAI	0x3f
000562   5791     movra   0x191            	MOVRA	_OEP0
                                           ;	.line	173; "MC32F7361.c"	PUP0 = 0x00;        // io   1:enable  0:disable
000563   7792     clrr    0x192            	CLRR	_PUP0
                                           ;	.line	174; "MC32F7361.c"	PDP0 = 0x00;        // io   1:enable  0:disable
000564   7793     clrr    0x193            	CLRR	_PDP0
                                           ;	.line	175; "MC32F7361.c"	P0ADCR = 0x00;      // io  1:  0:io
000565   77b6     clrr    0x1b6            	CLRR	_P0ADCR
                                           ;	.line	178; "MC32F7361.c"	IOP1 = (0x01 << 4); // LED
000566   3c10     movai   0x10             	MOVAI	0x10
000567   5794     movra   0x194            	MOVRA	_IOP1
                                           ;	.line	179; "MC32F7361.c"	OEP1 = 0xFF;        // io 1:out  0:in
000568   3cff     movai   0xff             	MOVAI	0xff
000569   5795     movra   0x195            	MOVRA	_OEP1
                                           ;	.line	180; "MC32F7361.c"	PUP1 = 0x00;        // io   1:enable  0:disable
00056a   7796     clrr    0x196            	CLRR	_PUP1
                                           ;	.line	181; "MC32F7361.c"	PDP1 = 0x00;        // io   1:enable  0:disable
00056b   7797     clrr    0x197            	CLRR	_PDP1
                                           ;	.line	182; "MC32F7361.c"	P1ADCR = 0x00;      // io  1:  0:io
00056c   77b7     clrr    0x1b7            	CLRR	_P1ADCR
                                           ;	.line	184; "MC32F7361.c"	IOP2 = 0x00; // io
00056d   77b8     clrr    0x1b8            	CLRR	_IOP2
                                           ;	.line	185; "MC32F7361.c"	OEP2 = 0xFF; // io 1:out  0:in
00056e   3cff     movai   0xff             	MOVAI	0xff
00056f   57b9     movra   0x1b9            	MOVRA	_OEP2
                                           ;	.line	186; "MC32F7361.c"	PUP2 = 0x00; // io   1:enable  0:disable
000570   77ba     clrr    0x1ba            	CLRR	_PUP2
                                           ;	.line	187; "MC32F7361.c"	PDP2 = 0x00; // io   1:enable  0:disablea
000571   77bb     clrr    0x1bb            	CLRR	_PDP2
                                           ;	.line	189; "MC32F7361.c"	PMOD = 0x00;  // P00P01P13 io
000572   77bc     clrr    0x1bc            	CLRR	_PMOD
                                           ;	.line	190; "MC32F7361.c"	DRVCR = 0x80; // 
000573   3c80     movai   0x80             	MOVAI	0x80
000574   578c     movra   0x18c            	MOVRA	_DRVCR
                                           ;	.line	195; "MC32F7361.c"	T0LOAD = (u8)(172 - 1);
000575   3cab     movai   0xab             	MOVAI	0xab
000576   579a     movra   0x19a            	MOVRA	_T0LOAD
                                           ;	.line	197; "MC32F7361.c"	T0DATA = 255; // 100%TxLOAD
000577   3cff     movai   0xff             	MOVAI	0xff
000578   579b     movra   0x19b            	MOVRA	_T0DATA
                                           ;	.line	198; "MC32F7361.c"	PWM0EC = 0;   // PWM
000579   dd98     bclr    0x198, 0x6       	BCLR	_T0CRbits,6
                                           ;	.line	199; "MC32F7361.c"	T0CR = 0x81;  // FCPU2
00057a   3c81     movai   0x81             	MOVAI	0x81
00057b   5798     movra   0x198            	MOVRA	_T0CR
                                           ;	.line	206; "MC32F7361.c"	T1LOAD = (u8)(172 - 1);
00057c   3cab     movai   0xab             	MOVAI	0xab
00057d   579e     movra   0x19e            	MOVRA	_T1LOAD
                                           ;	.line	208; "MC32F7361.c"	T1DATA = 255; // 100%TxLOAD
00057e   3cff     movai   0xff             	MOVAI	0xff
00057f   579f     movra   0x19f            	MOVRA	_T1DATA
                                           ;	.line	209; "MC32F7361.c"	PWM1EC = 0;   // PWM1
000580   dd9c     bclr    0x19c, 0x6       	BCLR	_T1CRbits,6
                                           ;	.line	210; "MC32F7361.c"	T1CR = 0x81;  // FCPU2
000581   3c81     movai   0x81             	MOVAI	0x81
000582   579c     movra   0x19c            	MOVRA	_T1CR
                                           ;	.line	216; "MC32F7361.c"	T2CKS1 = 0;
000583   d9a0     bclr    0x1a0, 0x4       	BCLR	_T2CRbits,4
                                           ;	.line	217; "MC32F7361.c"	T2CKS0 = 1;
000584   c7a0     bset    0x1a0, 0x3       	BSET	_T2CRbits,3
                                           ;	.line	219; "MC32F7361.c"	TMRCKS1 = 1;
000585   c9ad     bset    0x1ad, 0x4       	BSET	_PWMCR1bits,4
                                           ;	.line	220; "MC32F7361.c"	TMRCKS0 = 0;
000586   d7ad     bclr    0x1ad, 0x3       	BCLR	_PWMCR1bits,3
                                           ;	.line	223; "MC32F7361.c"	T2PRS2 = 0;
000587   d5a0     bclr    0x1a0, 0x2       	BCLR	_T2CRbits,2
                                           ;	.line	224; "MC32F7361.c"	T2PRS1 = 0;
000588   d3a0     bclr    0x1a0, 0x1       	BCLR	_T2CRbits,1
                                           ;	.line	225; "MC32F7361.c"	T2PRS0 = 1;
000589   c1a0     bset    0x1a0, 0         	BSET	_T2CRbits,0
                                           ;	.line	234; "MC32F7361.c"	T2LOAD = 127; // 125125.654KHz
00058a   3c7f     movai   0x7f             	MOVAI	0x7f
00058b   57a2     movra   0x1a2            	MOVRA	_T2LOAD
                                           ;	.line	236; "MC32F7361.c"	T2DATA = 0;
00058c   77a3     clrr    0x1a3            	CLRR	_T2DATA
                                           ;	.line	237; "MC32F7361.c"	PWM2EC = 0; // PWM
00058d   dda0     bclr    0x1a0, 0x6       	BCLR	_T2CRbits,6
                                           ;	.line	238; "MC32F7361.c"	T2EN = 1;
00058e   cfa0     bset    0x1a0, 0x7       	BSET	_T2CRbits,7
                                           ;	.line	242; "MC32F7361.c"	T3LOAD = 25 - 1; //
00058f   3c18     movai   0x18             	MOVAI	0x18
000590   57a6     movra   0x1a6            	MOVRA	_T3LOAD
                                           ;	.line	243; "MC32F7361.c"	T3CR = 0x85;     // FCPU32
000591   3c85     movai   0x85             	MOVAI	0x85
000592   57a4     movra   0x1a4            	MOVRA	_T3CR
                                           ;	.line	244; "MC32F7361.c"	T3IE = 1;
000593   cf8a     bset    0x18a, 0x7       	BSET	_INTEbits,7
                                           ;	.line	249; "MC32F7361.c"	P11PD = 1; // 
000594   c397     bset    0x197, 0x1       	BSET	_PDP1bits,1
                                           ;	.line	250; "MC32F7361.c"	P11OE = 0; // 
000595   d395     bclr    0x195, 0x1       	BCLR	_OEP1bits,1
                                           ;	.line	257; "MC32F7361.c"	adc_config();
000596   866d     call    0x66d            	CALL	_adc_config
                                           ;	.line	259; "MC32F7361.c"	GIE = 1;
000597   cf88     bset    0x188, 0x7       	BSET	_MCRbits,7
                                           ;	.line	261; "MC32F7361.c"	delay_ms(1); // 
000598   3c01     movai   0x1              	MOVAI	0x01
000599   5606     movra   0x6              	MOVRA	STK00
00059a   3c00     movai   0                	MOVAI	0x00
00059b   8685     call    0x685            	CALL	_delay_ms
                                           ;	.line	262; "MC32F7361.c"	}
00059c   000c     return                   	RETURN	
                                           ; exit point of _Sys_Init
                                           
                                           ;***
                                           ;  pBlock Stats: dbName = C
                                           ;***
                                           ;entry:  _adc_get_val_once	;Function start
                                           ; 2 exit points
                                           ;has an exit
                                           ;7 compiler assigned registers:
                                           ;   r0x104E
                                           ;   r0x104F
                                           ;   r0x1050
                                           ;   r0x1051
                                           ;   r0x1052
                                           ;   r0x1053
                                           ;   STK00
                                           ;; Starting pCode block
                                           _adc_get_val_once	;Function start
                                           ; 2 exit points
                                           ;	.line	127; "MC32F7361.c"	ADEOC = 0; // ADCAD
00059d   d3b0     bclr    0x1b0, 0x1       	BCLR	_ADCR0bits,1
                                           _00204_DS_
                                           ;	.line	128; "MC32F7361.c"	while (!ADEOC)
00059e   e3b0     jbset   0x1b0, 0x1       	JBSET	_ADCR0bits,1
00059f   a59e     goto    0x59e            	GOTO	_00204_DS_
                                           ;	.line	130; "MC32F7361.c"	g_temp_value = ADRH; // 
0005a0   59b4     movar   0x1b4            	MOVAR	_ADRH
0005a1   5608     movra   0x8              	MOVRA	r0x104E
0005a2   7607     clrr    0x7              	CLRR	r0x104F
                                           ;	.line	131; "MC32F7361.c"	g_temp_value = g_temp_value << 4 | (ADRL & 0x0F);
0005a3   4407     swapar  0x7              	SWAPAR	r0x104F
0005a4   3ef0     andai   0xf0             	ANDAI	0xf0
0005a5   5609     movra   0x9              	MOVRA	r0x1050
0005a6   4408     swapar  0x8              	SWAPAR	r0x104E
0005a7   560a     movra   0xa              	MOVRA	r0x1051
0005a8   3e0f     andai   0xf              	ANDAI	0x0f
0005a9   5e09     orra    0x9              	ORRA	r0x1050
0005aa   420a     xorra   0xa              	XORRA	r0x1051
0005ab   59b5     movar   0x1b5            	MOVAR	_ADRL
0005ac   5608     movra   0x8              	MOVRA	r0x104E
0005ad   7607     clrr    0x7              	CLRR	r0x104F
0005ae   3c0f     movai   0xf              	MOVAI	0x0f
0005af   7a08     andra   0x8              	ANDRA	r0x104E
0005b0   7607     clrr    0x7              	CLRR	r0x104F
                                           ;;101	MOVAR	r0x104E
                                           ;;99	MOVRA	r0x1052
                                           ;;104	MOVAR	r0x104F
                                           ;;102	MOVRA	r0x1053
                                           ;;100	MOVAR	r0x1052
0005b1   5808     movar   0x8              	MOVAR	r0x104E
0005b2   5e0a     orra    0xa              	ORRA	r0x1051
                                           ;;103	MOVAR	r0x1053
0005b3   3c00     movai   0                	MOVAI	0x00
0005b4   5e09     orra    0x9              	ORRA	r0x1050
                                           ;	.line	155; "MC32F7361.c"	return g_temp_value;
0005b5   580a     movar   0xa              	MOVAR	r0x1051
0005b6   5606     movra   0x6              	MOVRA	STK00
0005b7   5809     movar   0x9              	MOVAR	r0x1050
                                           ;	.line	156; "MC32F7361.c"	}
0005b8   000c     return                   	RETURN	
                                           ; exit point of _adc_get_val_once
                                           
                                           ;***
                                           ;  pBlock Stats: dbName = C
                                           ;***
                                           ;entry:  _adc_get_val	;Function start
                                           ; 2 exit points
                                           ;has an exit
                                           ;16 compiler assigned registers:
                                           ;   r0x104E
                                           ;   r0x104F
                                           ;   r0x1050
                                           ;   r0x1051
                                           ;   r0x1052
                                           ;   r0x1053
                                           ;   r0x1054
                                           ;   r0x1055
                                           ;   r0x1056
                                           ;   r0x1057
                                           ;   r0x1058
                                           ;   r0x1059
                                           ;   r0x105A
                                           ;   r0x105B
                                           ;   r0x105C
                                           ;   STK00
                                           ;; Starting pCode block
                                           _adc_get_val	;Function start
                                           ; 2 exit points
                                           ;	.line	74; "MC32F7361.c"	u32 g_tmpbuff = 0;
0005b9   7608     clrr    0x8              	CLRR	r0x104E
0005ba   7607     clrr    0x7              	CLRR	r0x104F
0005bb   7609     clrr    0x9              	CLRR	r0x1050
0005bc   760a     clrr    0xa              	CLRR	r0x1051
                                           ;	.line	75; "MC32F7361.c"	u16 g_adcmax = 0;
0005bd   760b     clrr    0xb              	CLRR	r0x1052
0005be   760c     clrr    0xc              	CLRR	r0x1053
                                           ;	.line	76; "MC32F7361.c"	u16 g_adcmin = 0xFFFF;
0005bf   3cff     movai   0xff             	MOVAI	0xff
0005c0   560d     movra   0xd              	MOVRA	r0x1054
0005c1   560e     movra   0xe              	MOVRA	r0x1055
                                           ;	.line	79; "MC32F7361.c"	for (i = 0; i < 20; i++)
0005c2   760f     clrr    0xf              	CLRR	r0x1056
                                           _00158_DS_
                                           ;	.line	81; "MC32F7361.c"	ADEOC = 0; // ADCAD
0005c3   d3b0     bclr    0x1b0, 0x1       	BCLR	_ADCR0bits,1
                                           _00147_DS_
                                           ;	.line	82; "MC32F7361.c"	while (!ADEOC)
0005c4   e3b0     jbset   0x1b0, 0x1       	JBSET	_ADCR0bits,1
0005c5   a5c4     goto    0x5c4            	GOTO	_00147_DS_
                                           ;	.line	84; "MC32F7361.c"	g_temp_value = ADRH; // 
0005c6   59b4     movar   0x1b4            	MOVAR	_ADRH
0005c7   5610     movra   0x10             	MOVRA	r0x1057
0005c8   7611     clrr    0x11             	CLRR	r0x1058
                                           ;	.line	85; "MC32F7361.c"	g_temp_value = g_temp_value << 4 | (ADRL & 0x0F);
0005c9   4411     swapar  0x11             	SWAPAR	r0x1058
0005ca   3ef0     andai   0xf0             	ANDAI	0xf0
0005cb   5613     movra   0x13             	MOVRA	r0x1059
0005cc   4410     swapar  0x10             	SWAPAR	r0x1057
0005cd   5612     movra   0x12             	MOVRA	r0x105A
0005ce   3e0f     andai   0xf              	ANDAI	0x0f
0005cf   5e13     orra    0x13             	ORRA	r0x1059
0005d0   4212     xorra   0x12             	XORRA	r0x105A
0005d1   59b5     movar   0x1b5            	MOVAR	_ADRL
0005d2   5610     movra   0x10             	MOVRA	r0x1057
0005d3   7611     clrr    0x11             	CLRR	r0x1058
0005d4   3c0f     movai   0xf              	MOVAI	0x0f
0005d5   7a10     andra   0x10             	ANDRA	r0x1057
0005d6   7611     clrr    0x11             	CLRR	r0x1058
                                           ;;120	MOVAR	r0x1057
0005d7   3c00     movai   0                	MOVAI	0x00
0005d8   5615     movra   0x15             	MOVRA	r0x105C
                                           ;;119	MOVAR	r0x105B
0005d9   5810     movar   0x10             	MOVAR	r0x1057
0005da   5614     movra   0x14             	MOVRA	r0x105B
0005db   5c12     orar    0x12             	ORAR	r0x105A
0005dc   5610     movra   0x10             	MOVRA	r0x1057
0005dd   5815     movar   0x15             	MOVAR	r0x105C
0005de   5c13     orar    0x13             	ORAR	r0x1059
0005df   5611     movra   0x11             	MOVRA	r0x1058
                                           ;;unsigned compare: left < lit(0x2=2), size=1
                                           ;	.line	86; "MC32F7361.c"	if (i < 2)
0005e0   3c02     movai   0x2              	MOVAI	0x02
0005e1   480f     rsubar  0xf              	RSUBAR	r0x1056
0005e2   e187     jbset   0x187, 0         	JBSET	PFLAG,0
0005e3   a60e     goto    0x60e            	GOTO	_00156_DS_
                                           ;;genSkipc:3291: created from rifx:013B5EFC
                                           ;	.line	88; "MC32F7361.c"	if (g_temp_value > g_adcmax)
0005e4   5811     movar   0x11             	MOVAR	r0x1058
0005e5   480c     rsubar  0xc              	RSUBAR	r0x1053
0005e6   e587     jbset   0x187, 0x2       	JBSET	PFLAG,2
0005e7   a5ea     goto    0x5ea            	GOTO	_00198_DS_
0005e8   5810     movar   0x10             	MOVAR	r0x1057
0005e9   480b     rsubar  0xb              	RSUBAR	r0x1052
                                           _00198_DS_
0005ea   f187     jbclr   0x187, 0         	JBCLR	PFLAG,0
0005eb   a5f0     goto    0x5f0            	GOTO	_00153_DS_
                                           ;;genSkipc:3291: created from rifx:013B5EFC
                                           ;	.line	89; "MC32F7361.c"	g_adcmax = g_temp_value; // 
0005ec   5810     movar   0x10             	MOVAR	r0x1057
0005ed   560b     movra   0xb              	MOVRA	r0x1052
0005ee   5811     movar   0x11             	MOVAR	r0x1058
0005ef   560c     movra   0xc              	MOVRA	r0x1053
                                           _00153_DS_
                                           ;	.line	90; "MC32F7361.c"	if (g_temp_value < g_adcmin)
0005f0   580e     movar   0xe              	MOVAR	r0x1055
0005f1   4811     rsubar  0x11             	RSUBAR	r0x1058
0005f2   e587     jbset   0x187, 0x2       	JBSET	PFLAG,2
0005f3   a5f6     goto    0x5f6            	GOTO	_00199_DS_
0005f4   580d     movar   0xd              	MOVAR	r0x1054
0005f5   4810     rsubar  0x10             	RSUBAR	r0x1057
                                           _00199_DS_
0005f6   f187     jbclr   0x187, 0         	JBCLR	PFLAG,0
0005f7   a5fc     goto    0x5fc            	GOTO	_00155_DS_
                                           ;;genSkipc:3291: created from rifx:013B5EFC
                                           ;	.line	91; "MC32F7361.c"	g_adcmin = g_temp_value; // 
0005f8   5810     movar   0x10             	MOVAR	r0x1057
0005f9   560d     movra   0xd              	MOVRA	r0x1054
0005fa   5811     movar   0x11             	MOVAR	r0x1058
0005fb   560e     movra   0xe              	MOVRA	r0x1055
                                           ;;116	MOVAR	r0x1057
                                           ;;118	MOVAR	r0x1058
                                           _00155_DS_
                                           ;	.line	92; "MC32F7361.c"	g_tmpbuff += g_temp_value;
0005fc   7614     clrr    0x14             	CLRR	r0x105B
0005fd   7615     clrr    0x15             	CLRR	r0x105C
                                           ;;115	MOVAR	r0x105A
0005fe   5810     movar   0x10             	MOVAR	r0x1057
0005ff   5612     movra   0x12             	MOVRA	r0x105A
000600   7e08     addra   0x8              	ADDRA	r0x104E
                                           ;;117	MOVAR	r0x1059
000601   5811     movar   0x11             	MOVAR	r0x1058
000602   5613     movra   0x13             	MOVRA	r0x1059
000603   f187     jbclr   0x187, 0         	JBCLR	PFLAG,0
000604   6013     jzar    0x13             	JZAR	r0x1059
000605   7e07     addra   0x7              	ADDRA	r0x104F
000606   5814     movar   0x14             	MOVAR	r0x105B
000607   f187     jbclr   0x187, 0         	JBCLR	PFLAG,0
000608   6014     jzar    0x14             	JZAR	r0x105B
000609   7e09     addra   0x9              	ADDRA	r0x1050
00060a   5815     movar   0x15             	MOVAR	r0x105C
00060b   f187     jbclr   0x187, 0         	JBCLR	PFLAG,0
00060c   6015     jzar    0x15             	JZAR	r0x105C
00060d   7e0a     addra   0xa              	ADDRA	r0x1051
                                           _00156_DS_
                                           ;	.line	79; "MC32F7361.c"	for (i = 0; i < 20; i++)
00060e   660f     incr    0xf              	INCR	r0x1056
                                           ;;unsigned compare: left < lit(0x14=20), size=1
00060f   3c14     movai   0x14             	MOVAI	0x14
000610   480f     rsubar  0xf              	RSUBAR	r0x1056
000611   e187     jbset   0x187, 0         	JBSET	PFLAG,0
000612   a5c3     goto    0x5c3            	GOTO	_00158_DS_
                                           ;;genSkipc:3291: created from rifx:013B5EFC
                                           ;;114	MOVAR	r0x1052
                                           ;	.line	94; "MC32F7361.c"	g_tmpbuff -= g_adcmax;           // 
000613   580c     movar   0xc              	MOVAR	r0x1053
000614   5610     movra   0x10             	MOVRA	r0x1057
000615   7611     clrr    0x11             	CLRR	r0x1058
000616   7612     clrr    0x12             	CLRR	r0x105A
                                           ;;113	MOVAR	r0x1056
000617   580b     movar   0xb              	MOVAR	r0x1052
000618   560f     movra   0xf              	MOVRA	r0x1056
000619   4808     rsubar  0x8              	RSUBAR	r0x104E
00061a   560b     movra   0xb              	MOVRA	r0x1052
00061b   5807     movar   0x7              	MOVAR	r0x104F
00061c   560c     movra   0xc              	MOVRA	r0x1053
00061d   5810     movar   0x10             	MOVAR	r0x1057
00061e   e187     jbset   0x187, 0         	JBSET	PFLAG,0
00061f   6010     jzar    0x10             	JZAR	r0x1057
000620   4a0c     rsubra  0xc              	RSUBRA	r0x1053
000621   5809     movar   0x9              	MOVAR	r0x1050
000622   5613     movra   0x13             	MOVRA	r0x1059
000623   5811     movar   0x11             	MOVAR	r0x1058
000624   e187     jbset   0x187, 0         	JBSET	PFLAG,0
000625   6011     jzar    0x11             	JZAR	r0x1058
000626   4a13     rsubra  0x13             	RSUBRA	r0x1059
000627   5812     movar   0x12             	MOVAR	r0x105A
000628   e187     jbset   0x187, 0         	JBSET	PFLAG,0
000629   6412     incar   0x12             	INCAR	r0x105A
00062a   480a     rsubar  0xa              	RSUBAR	r0x1051
00062b   5614     movra   0x14             	MOVRA	r0x105B
                                           ;;106	MOVAR	r0x1054
                                           ;;108	MOVAR	r0x1055
                                           ;	.line	95; "MC32F7361.c"	g_tmpbuff -= g_adcmin;           // 
00062c   7609     clrr    0x9              	CLRR	r0x1050
00062d   760a     clrr    0xa              	CLRR	r0x1051
                                           ;;105	MOVAR	r0x104E
00062e   580d     movar   0xd              	MOVAR	r0x1054
00062f   5608     movra   0x8              	MOVRA	r0x104E
000630   4a0b     rsubra  0xb              	RSUBRA	r0x1052
                                           ;;107	MOVAR	r0x104F
000631   580e     movar   0xe              	MOVAR	r0x1055
000632   5607     movra   0x7              	MOVRA	r0x104F
000633   e187     jbset   0x187, 0         	JBSET	PFLAG,0
000634   6007     jzar    0x7              	JZAR	r0x104F
000635   4a0c     rsubra  0xc              	RSUBRA	r0x1053
000636   5809     movar   0x9              	MOVAR	r0x1050
000637   e187     jbset   0x187, 0         	JBSET	PFLAG,0
000638   6009     jzar    0x9              	JZAR	r0x1050
000639   4a13     rsubra  0x13             	RSUBRA	r0x1059
00063a   580a     movar   0xa              	MOVAR	r0x1051
00063b   e187     jbset   0x187, 0         	JBSET	PFLAG,0
00063c   600a     jzar    0xa              	JZAR	r0x1051
00063d   4a14     rsubra  0x14             	RSUBRA	r0x105B
                                           ;	.line	96; "MC32F7361.c"	g_temp_value = (g_tmpbuff >> 4); // 16
00063e   440b     swapar  0xb              	SWAPAR	r0x1052
00063f   3e0f     andai   0xf              	ANDAI	0x0f
000640   5608     movra   0x8              	MOVRA	r0x104E
000641   440c     swapar  0xc              	SWAPAR	r0x1053
000642   5607     movra   0x7              	MOVRA	r0x104F
000643   3ef0     andai   0xf0             	ANDAI	0xf0
000644   5e08     orra    0x8              	ORRA	r0x104E
000645   4207     xorra   0x7              	XORRA	r0x104F
000646   4413     swapar  0x13             	SWAPAR	r0x1059
000647   5609     movra   0x9              	MOVRA	r0x1050
000648   3ef0     andai   0xf0             	ANDAI	0xf0
000649   5e07     orra    0x7              	ORRA	r0x104F
00064a   4209     xorra   0x9              	XORRA	r0x1050
00064b   4414     swapar  0x14             	SWAPAR	r0x105B
00064c   560a     movra   0xa              	MOVRA	r0x1051
00064d   3ef0     andai   0xf0             	ANDAI	0xf0
00064e   5e09     orra    0x9              	ORRA	r0x1050
00064f   420a     xorra   0xa              	XORRA	r0x1051
                                           ;;110	MOVAR	r0x104E
                                           ;;112	MOVAR	r0x104F
                                           ;;109	MOVAR	r0x1052
                                           ;	.line	120; "MC32F7361.c"	return g_temp_value;
000650   5808     movar   0x8              	MOVAR	r0x104E
000651   560b     movra   0xb              	MOVRA	r0x1052
000652   5606     movra   0x6              	MOVRA	STK00
                                           ;;111	MOVAR	r0x1053
000653   5807     movar   0x7              	MOVAR	r0x104F
000654   560c     movra   0xc              	MOVRA	r0x1053
                                           ;	.line	121; "MC32F7361.c"	}
000655   000c     return                   	RETURN	
                                           ; exit point of _adc_get_val
                                           
                                           ;***
                                           ;  pBlock Stats: dbName = C
                                           ;***
                                           ;entry:  _adc_sel_pin	;Function start
                                           ; 2 exit points
                                           ;has an exit
                                           ;functions called:
                                           ;   _delay_ms
                                           ;   _delay_ms
                                           ;2 compiler assigned registers:
                                           ;   r0x1054
                                           ;   STK00
                                           ;; Starting pCode block
                                           _adc_sel_pin	;Function start
                                           ; 2 exit points
                                           ;	.line	48; "MC32F7361.c"	void adc_sel_pin(u8 adc_pin)
000656   560d     movra   0xd              	MOVRA	r0x1054
                                           ;	.line	51; "MC32F7361.c"	switch (adc_pin)
000657   580d     movar   0xd              	MOVAR	r0x1054
000658   3901     xorai   0x1              	XORAI	0x01
000659   e587     jbset   0x187, 0x2       	JBSET	PFLAG,2
00065a   a65c     goto    0x65c            	GOTO	_00141_DS_
00065b   a662     goto    0x662            	GOTO	_00127_DS_
                                           _00141_DS_
00065c   580d     movar   0xd              	MOVAR	r0x1054
00065d   3902     xorai   0x2              	XORAI	0x02
00065e   e587     jbset   0x187, 0x2       	JBSET	PFLAG,2
00065f   a661     goto    0x661            	GOTO	_00142_DS_
000660   a665     goto    0x665            	GOTO	_00128_DS_
                                           _00142_DS_
000661   a668     goto    0x668            	GOTO	_00130_DS_
                                           _00127_DS_
                                           ;	.line	54; "MC32F7361.c"	ADCR0 &= ~(0x0F << 4); // 
000662   3c0f     movai   0xf              	MOVAI	0x0f
000663   7bb0     andra   0x1b0            	ANDRA	_ADCR0
                                           ;	.line	55; "MC32F7361.c"	break;
000664   a668     goto    0x668            	GOTO	_00130_DS_
                                           _00128_DS_
                                           ;	.line	58; "MC32F7361.c"	ADCR0 &= ~(0x0F << 4); // 
000665   3c0f     movai   0xf              	MOVAI	0x0f
000666   7bb0     andra   0x1b0            	ANDRA	_ADCR0
                                           ;	.line	59; "MC32F7361.c"	ADCR0 |= 0x01 << 4;    // AIN1--P02;
000667   c9b0     bset    0x1b0, 0x4       	BSET	_ADCR0,4
                                           _00130_DS_
                                           ;	.line	66; "MC32F7361.c"	delay_ms(1); // adcadc
000668   3c01     movai   0x1              	MOVAI	0x01
000669   5606     movra   0x6              	MOVRA	STK00
00066a   3c00     movai   0                	MOVAI	0x00
00066b   8685     call    0x685            	CALL	_delay_ms
                                           ;	.line	67; "MC32F7361.c"	}
00066c   000c     return                   	RETURN	
                                           ; exit point of _adc_sel_pin
                                           
                                           ;***
                                           ;  pBlock Stats: dbName = C
                                           ;***
                                           ;entry:  _adc_config	;Function start
                                           ; 2 exit points
                                           ;has an exit
                                           ;; Starting pCode block
                                           _adc_config	;Function start
                                           ; 2 exit points
                                           ;	.line	34; "MC32F7361.c"	P00OE = 0; // 
00066d   d191     bclr    0x191, 0         	BCLR	_OEP0bits,0
                                           ;	.line	35; "MC32F7361.c"	P00DC = 1; // 
00066e   c1b6     bset    0x1b6, 0         	BSET	_P0ADCRbits,0
                                           ;	.line	38; "MC32F7361.c"	P02OE = 0; // 
00066f   d591     bclr    0x191, 0x2       	BCLR	_OEP0bits,2
                                           ;	.line	39; "MC32F7361.c"	P02DC = 1; // 
000670   c5b6     bset    0x1b6, 0x2       	BSET	_P0ADCRbits,2
                                           ;	.line	41; "MC32F7361.c"	ADCR0 = 0x0A; // 12ADCADC
000671   3c0a     movai   0xa              	MOVAI	0x0a
000672   57b0     movra   0x1b0            	MOVRA	_ADCR0
                                           ;	.line	42; "MC32F7361.c"	ADCR1 = 0xE1; // 125K  3V
000673   3ce1     movai   0xe1             	MOVAI	0xe1
000674   57b1     movra   0x1b1            	MOVRA	_ADCR1
                                           ;	.line	43; "MC32F7361.c"	ADCR2 = 0xFF; // ADC15ADC
000675   3cff     movai   0xff             	MOVAI	0xff
000676   57b2     movra   0x1b2            	MOVRA	_ADCR2
                                           ;	.line	44; "MC32F7361.c"	ADEN = 1;     // ADC
000677   c1b0     bset    0x1b0, 0         	BSET	_ADCR0bits,0
                                           ;	.line	45; "MC32F7361.c"	}
000678   000c     return                   	RETURN	
                                           ; exit point of _adc_config
                                           
                                           ;***
                                           ;  pBlock Stats: dbName = C
                                           ;***
                                           ;entry:  _CLR_RAM	;Function start
                                           ; 2 exit points
                                           ;has an exit
                                           ;; Starting pCode block
                                           _CLR_RAM	;Function start
                                           ; 2 exit points
                                           ;	.line	22; "MC32F7361.c"	for (FSR0 = 0; FSR0 < 0xff; FSR0++)
000679   7784     clrr    0x184            	CLRR	_FSR0
                                           ;;unsigned compare: left < lit(0xFF=255), size=1
                                           _00118_DS_
00067a   3cff     movai   0xff             	MOVAI	0xff
00067b   4984     rsubar  0x184            	RSUBAR	_FSR0
00067c   f187     jbclr   0x187, 0         	JBCLR	PFLAG,0
00067d   a681     goto    0x681            	GOTO	_00116_DS_
                                           ;;genSkipc:3291: created from rifx:013B5EFC
                                           ;	.line	24; "MC32F7361.c"	INDF0 = 0x00;
00067e   7780     clrr    0x180            	CLRR	_INDF0
                                           ;	.line	22; "MC32F7361.c"	for (FSR0 = 0; FSR0 < 0xff; FSR0++)
00067f   6784     incr    0x184            	INCR	_FSR0
000680   a67a     goto    0x67a            	GOTO	_00118_DS_
                                           _00116_DS_
                                           ;	.line	26; "MC32F7361.c"	FSR0 = 0xFF;
000681   3cff     movai   0xff             	MOVAI	0xff
000682   5784     movra   0x184            	MOVRA	_FSR0
                                           ;	.line	27; "MC32F7361.c"	INDF0 = 0x00;
000683   7780     clrr    0x180            	CLRR	_INDF0
                                           ;	.line	28; "MC32F7361.c"	}
000684   000c     return                   	RETURN	
                                           ; exit point of _CLR_RAM
                                           
                                           ;***
                                           ;  pBlock Stats: dbName = C
                                           ;***
                                           ;entry:  _delay_ms	;Function start
                                           ; 2 exit points
                                           ;has an exit
                                           ;7 compiler assigned registers:
                                           ;   r0x104E
                                           ;   STK00
                                           ;   r0x104F
                                           ;   r0x1050
                                           ;   r0x1051
                                           ;   r0x1052
                                           ;   r0x1053
                                           ;; Starting pCode block
                                           _delay_ms	;Function start
                                           ; 2 exit points
                                           ;	.line	333; "user.h"	void delay_ms(u16 xms)
000685   5608     movra   0x8              	MOVRA	r0x104E
000686   5806     movar   0x6              	MOVAR	STK00
000687   5607     movra   0x7              	MOVRA	r0x104F
                                           _00108_DS_
                                           ;	.line	335; "user.h"	while (xms)
000688   5807     movar   0x7              	MOVAR	r0x104F
000689   5c08     orar    0x8              	ORAR	r0x104E
00068a   f587     jbclr   0x187, 0x2       	JBCLR	PFLAG,2
00068b   a6a4     goto    0x6a4            	GOTO	_00111_DS_
                                           ;	.line	338; "user.h"	while (i--)
00068c   3c3c     movai   0x3c             	MOVAI	0x3c
00068d   5609     movra   0x9              	MOVRA	r0x1050
00068e   3c02     movai   0x2              	MOVAI	0x02
00068f   560a     movra   0xa              	MOVRA	r0x1051
                                           _00105_DS_
000690   5809     movar   0x9              	MOVAR	r0x1050
000691   560b     movra   0xb              	MOVRA	r0x1052
000692   580a     movar   0xa              	MOVAR	r0x1051
000693   560c     movra   0xc              	MOVRA	r0x1053
000694   3cff     movai   0xff             	MOVAI	0xff
000695   7e09     addra   0x9              	ADDRA	r0x1050
000696   e187     jbset   0x187, 0         	JBSET	PFLAG,0
000697   6e0a     decr    0xa              	DECR	r0x1051
000698   580b     movar   0xb              	MOVAR	r0x1052
000699   5c0c     orar    0xc              	ORAR	r0x1053
00069a   f587     jbclr   0x187, 0x2       	JBCLR	PFLAG,2
00069b   a69e     goto    0x69e            	GOTO	_00107_DS_
                                           ;	.line	340; "user.h"	Nop();
00069c   0000     nop                      	nop	
00069d   a690     goto    0x690            	GOTO	_00105_DS_
                                           _00107_DS_
                                           ;	.line	342; "user.h"	xms--; //  --while()
00069e   3cff     movai   0xff             	MOVAI	0xff
00069f   7e07     addra   0x7              	ADDRA	r0x104F
0006a0   e187     jbset   0x187, 0         	JBSET	PFLAG,0
0006a1   6e08     decr    0x8              	DECR	r0x104E
                                           ;	.line	346; "user.h"	__endasm;
                                           	;
0006a2   000e     clrwdt                   	clrwdt;
                                           	
0006a3   a688     goto    0x688            	GOTO	_00108_DS_
                                           _00111_DS_
                                           ;	.line	348; "user.h"	}
0006a4   000c     return                   	RETURN	
                                           ; exit point of _delay_ms
                                           
                                           
                                           ;	code size estimation:
                                           ;	 1678+    0 =  1678 instructions ( 3356 byte)
                                           
                                           	end
                                           ;--------------------------------------------------------
                                           ; File Created by SN-SDCC : SinoMCU ANSI-C Compiler
                                           ; Version 2.0.0 (Dec 11 2019) (MINGW32)
                                           ; This file was generated Mon Feb 02 18:01:04 2026
                                           ;--------------------------------------------------------
                                           ; MC32 port for the RISC core
                                           ;--------------------------------------------------------
                                           ;	.file	"MC32F7361.c"
                                           	list	p=7361
                                           	radix dec
                                           	include "7361.inc"
                                           ;--------------------------------------------------------
                                           ; external declarations
                                           ;--------------------------------------------------------
                                           	extern	__mullong
                                           	extern	__divulong
                                           	extern	_INDF0bits
                                           	extern	_INDF1bits
                                           	extern	_INDF2bits
                                           	extern	_HIBYTEbits
                                           	extern	_FSR0bits
                                           	extern	_FSR1bits
                                           	extern	_PCLbits
                                           	extern	_PFLAGbits
                                           	extern	_MCRbits
                                           	extern	_INDF3bits
                                           	extern	_INTEbits
                                           	extern	_INTFbits
                                           	extern	_DRVCRbits
                                           	extern	_P0KBCRbits
                                           	extern	_P1KBCRbits
                                           	extern	_P2KBCRbits
                                           	extern	_IOP0bits
                                           	extern	_OEP0bits
                                           	extern	_PUP0bits
                                           	extern	_PDP0bits
                                           	extern	_IOP1bits
                                           	extern	_OEP1bits
                                           	extern	_PUP1bits
                                           	extern	_PDP1bits
                                           	extern	_T0CRbits
                                           	extern	_T0CNTbits
                                           	extern	_T0LOADbits
                                           	extern	_T0DATAbits
                                           	extern	_T1CRbits
                                           	extern	_T1CNTbits
                                           	extern	_T1LOADbits
                                           	extern	_T1DATAbits
                                           	extern	_T2CRbits
                                           	extern	_T2CNTbits
                                           	extern	_T2LOADbits
                                           	extern	_T2DATAbits
                                           	extern	_T3CRbits
                                           	extern	_T3CNTbits
                                           	extern	_T3LOADbits
                                           	extern	_PWM0DRbits
                                           	extern	_PWM1DRbits
                                           	extern	_PWM2DRbits
                                           	extern	_PWMCR0bits
                                           	extern	_PWMCR1bits
                                           	extern	_OSCMRbits
                                           	extern	_LVDCRbits
                                           	extern	_ADCR0bits
                                           	extern	_ADCR1bits
                                           	extern	_ADCR2bits
                                           	extern	_OSADJCRbits
                                           	extern	_ADRHbits
                                           	extern	_ADRLbits
                                           	extern	_P0ADCRbits
                                           	extern	_P1ADCRbits
                                           	extern	_IOP2bits
                                           	extern	_OEP2bits
                                           	extern	_PUP2bits
                                           	extern	_PDP2bits
                                           	extern	_PMODbits
                                           	extern	_PWMCR3bits
                                           	extern	_PWMCR2bits
                                           	extern	_PFRCCRbits
                                           	extern	_PFRCCALbits
                                           	extern	_EECRbits
                                           	extern	_EEPRbits
                                           	extern	_EEARbits
                                           	extern	_EEDRHbits
                                           	extern	_EEDRLbits
                                           	extern	_DBGCRbits
                                           	extern	_DBGPRbits
                                           	extern	_HIRCCALbits
                                           	extern	_INDF0
                                           	extern	_INDF1
                                           	extern	_INDF2
                                           	extern	_HIBYTE
                                           	extern	_FSR0
                                           	extern	_FSR1
                                           	extern	_PCL
                                           	extern	_PFLAG
                                           	extern	_MCR
                                           	extern	_INDF3
                                           	extern	_INTE
                                           	extern	_INTF
                                           	extern	_DRVCR
                                           	extern	_P0KBCR
                                           	extern	_P1KBCR
                                           	extern	_P2KBCR
                                           	extern	_IOP0
                                           	extern	_OEP0
                                           	extern	_PUP0
                                           	extern	_PDP0
                                           	extern	_IOP1
                                           	extern	_OEP1
                                           	extern	_PUP1
                                           	extern	_PDP1
                                           	extern	_T0CR
                                           	extern	_T0CNT
                                           	extern	_T0LOAD
                                           	extern	_T0DATA
                                           	extern	_T1CR
                                           	extern	_T1CNT
                                           	extern	_T1LOAD
                                           	extern	_T1DATA
                                           	extern	_T2CR
                                           	extern	_T2CNT
                                           	extern	_T2LOAD
                                           	extern	_T2DATA
                                           	extern	_T3CR
                                           	extern	_T3CNT
                                           	extern	_T3LOAD
                                           	extern	_PWM0DR
                                           	extern	_PWM1DR
                                           	extern	_PWM2DR
                                           	extern	_PWMCR0
                                           	extern	_PWMCR1
                                           	extern	_OSCMR
                                           	extern	_LVDCR
                                           	extern	_ADCR0
                                           	extern	_ADCR1
                                           	extern	_ADCR2
                                           	extern	_OSADJCR
                                           	extern	_ADRH
                                           	extern	_ADRL
                                           	extern	_P0ADCR
                                           	extern	_P1ADCR
                                           	extern	_IOP2
                                           	extern	_OEP2
                                           	extern	_PUP2
                                           	extern	_PDP2
                                           	extern	_PMOD
                                           	extern	_PWMCR3
                                           	extern	_PWMCR2
                                           	extern	_PFRCCR
                                           	extern	_PFRCCAL
                                           	extern	_EECR
                                           	extern	_EEPR
                                           	extern	_EEAR
                                           	extern	_EEDRH
                                           	extern	_EEDRL
                                           	extern	_DBGCR
                                           	extern	_DBGPR
                                           	extern	_HIRCCAL
                                           ;--------------------------------------------------------
                                           ; global declarations
                                           ;--------------------------------------------------------
                                           	global	_delay_ms
                                           	global	_CLR_RAM
                                           	global	_adc_config
                                           	global	_adc_sel_pin
                                           	global	_adc_get_val
                                           	global	_adc_get_val_once
                                           	global	_Sys_Init
                                           	global	_key_scan
                                           	global	_key_event_handle
                                           	global	_adc_scan_handle
                                           	global	_turn_dir_scan_handle
                                           	global	_shutdown_scan_handle
                                           	global	_low_power_scan_handle
                                           	global	_main
                                           	global	_int_isr
                                           	global	_key_event
                                           	global	_mode_flag
                                           	global	_sub_mode_status
                                           	global	_key_press_flag
                                           	global	_i
                                           	global	_adc_val
                                           	global	_turn_dir_ms_cnt
                                           	global	_shut_down_ms_cnt
                                           	global	_adc_bat_val
                                           	global	_adc_charging_val
                                           	global	_max_pwm_val
                                           	global	_last_pwm_val
                                           	global	_tmp_val
                                           	global	_tmp_val_l
                                           	global	_tmp_val_cnt
                                           	global	_tmp_bat_val
                                           	global	_over_charging_cnt
                                           	global	_full_charge_cnt
                                           	global	_abuf
                                           	global	_statusbuf
                                           	global	_flag1
                                           	global	_flag2
                                           	global	_flag3
                                           
                                           	global STK06
                                           	global STK05
                                           	global STK04
                                           	global STK03
                                           	global STK02
                                           	global STK01
                                           	global STK00
                                           
                                           sharebank udata_ovr 0x0000
                                           STK06	res 1
                                           STK05	res 1
                                           STK04	res 1
                                           STK03	res 1
                                           STK02	res 1
                                           STK01	res 1
                                           STK00	res 1
                                           
                                           ;--------------------------------------------------------
                                           ; global definitions
                                           ;--------------------------------------------------------
                                           UD_MC32F7361_0	udata
                                           _key_event	res	1
                                           
                                           UD_MC32F7361_1	udata
                                           _mode_flag	res	1
                                           
                                           UD_MC32F7361_2	udata
                                           _sub_mode_status	res	1
                                           
                                           UD_MC32F7361_3	udata
                                           _key_press_flag	res	1
                                           
                                           UD_MC32F7361_4	udata
                                           _i	res	1
                                           
                                           UD_MC32F7361_5	udata
                                           _adc_val	res	2
                                           
                                           UD_MC32F7361_6	udata
                                           _turn_dir_ms_cnt	res	4
                                           
                                           UD_MC32F7361_7	udata
                                           _shut_down_ms_cnt	res	4
                                           
                                           UD_MC32F7361_8	udata
                                           _adc_bat_val	res	4
                                           
                                           UD_MC32F7361_9	udata
                                           _adc_charging_val	res	2
                                           
                                           UD_MC32F7361_10	udata
                                           _max_pwm_val	res	4
                                           
                                           UD_MC32F7361_11	udata
                                           _last_pwm_val	res	2
                                           
                                           UD_MC32F7361_12	udata
                                           _tmp_val	res	2
                                           
                                           UD_MC32F7361_13	udata
                                           _tmp_val_l	res	16
                                           
                                           UD_MC32F7361_14	udata
                                           _tmp_val_cnt	res	1
                                           
                                           UD_MC32F7361_15	udata
                                           _tmp_bat_val	res	2
                                           
                                           UD_MC32F7361_16	udata
                                           _over_charging_cnt	res	1
                                           
                                           UD_MC32F7361_17	udata
                                           _full_charge_cnt	res	1
                                           
                                           UD_MC32F7361_18	udata
                                           _abuf	res	1
                                           
                                           UD_MC32F7361_19	udata
                                           _statusbuf	res	1
                                           
                                           UD_MC32F7361_20	udata
                                           _flag1	res	1
                                           
                                           UD_MC32F7361_21	udata
                                           _flag2	res	1
                                           
                                           UD_MC32F7361_22	udata
                                           _flag3	res	1
                                           
                                           ;--------------------------------------------------------
                                           ; absolute symbol definitions
                                           ;--------------------------------------------------------
                                           ;--------------------------------------------------------
                                           ; compiler-defined variables
                                           ;--------------------------------------------------------
                                           UDL_MC32F7361_0	udata
                                           r0x104F	res	1
                                           r0x104E	res	1
                                           r0x1050	res	1
                                           r0x1051	res	1
                                           r0x1052	res	1
                                           r0x1053	res	1
                                           r0x1054	res	1
                                           r0x1055	res	1
                                           r0x1056	res	1
                                           r0x1057	res	1
                                           r0x1058	res	1
                                           r0x105A	res	1
                                           r0x1059	res	1
                                           r0x105B	res	1
                                           r0x105C	res	1
                                           r0x1067	res	1
                                           r0x105D	res	1
                                           r0x105E	res	1
                                           r0x1060	res	1
                                           r0x105F	res	1
                                           r0x1061	res	1
                                           r0x1062	res	1
                                           r0x1063	res	1
                                           r0x1064	res	1
                                           r0x1065	res	1
                                           r0x1066	res	1
                                           r0x1068	res	1
                                           r0x1069	res	1
                                           _key_scan_cur_key_id_65536_28	res	1
                                           _key_scan_filter_cnt_65536_28	res	1
                                           _key_scan_filter_key_id_65536_28	res	1
                                           _key_scan_press_cnt_65536_28	res	1
                                           _key_scan_flag_is_key_mode_hold_65536_28	res	1
                                           _key_scan_last_key_id_65536_28	res	1
                                           _adc_scan_handle_cnt_65536_77	res	1
                                           _adc_scan_handle_need_charge_cnt_65536_77	res	1
                                           _int_isr___1ms_cnt_196608_209	res	1
                                           _int_isr_key_scan_cnt_327680_211	res	1
                                           _int_isr_cnt_327680_213	res	2
                                           _int_isr_low_bat_cnt_327680_221	res	2
                                           _int_isr_shut_down_bat_cnt_327680_225	res	2
                                           _int_isr_update_current_time_cnt_327680_229	res	2
                                           _int_isr_cnt_327680_233	res	2
                                           _led_state	res	1
                                           _pwm_counter	res	2
                                           _breath_counter	res	1
                                           _pwm_duty	res	1
                                           _breath_direction	res	1
                                           ;--------------------------------------------------------
                                           ; initialized data
                                           ;--------------------------------------------------------
                                           
                                           ;@Allocation info for local variables in function 'delay_ms'
                                           ;@delay_ms delay_ms                  Allocated to registers ;size:2
                                           ;@delay_ms INDF0bits                 Allocated to registers ;size:1
                                           ;@delay_ms INDF1bits                 Allocated to registers ;size:1
                                           ;@delay_ms INDF2bits                 Allocated to registers ;size:1
                                           ;@delay_ms HIBYTEbits                Allocated to registers ;size:1
                                           ;@delay_ms FSR0bits                  Allocated to registers ;size:1
                                           ;@delay_ms FSR1bits                  Allocated to registers ;size:1
                                           ;@delay_ms PCLbits                   Allocated to registers ;size:1
                                           ;@delay_ms PFLAGbits                 Allocated to registers ;size:1
                                           ;@delay_ms MCRbits                   Allocated to registers ;size:1
                                           ;@delay_ms INDF3bits                 Allocated to registers ;size:1
                                           ;@delay_ms INTEbits                  Allocated to registers ;size:1
                                           ;@delay_ms INTFbits                  Allocated to registers ;size:1
                                           ;@delay_ms DRVCRbits                 Allocated to registers ;size:1
                                           ;@delay_ms P0KBCRbits                Allocated to registers ;size:1
                                           ;@delay_ms P1KBCRbits                Allocated to registers ;size:1
                                           ;@delay_ms P2KBCRbits                Allocated to registers ;size:1
                                           ;@delay_ms IOP0bits                  Allocated to registers ;size:1
                                           ;@delay_ms OEP0bits                  Allocated to registers ;size:1
                                           ;@delay_ms PUP0bits                  Allocated to registers ;size:1
                                           ;@delay_ms PDP0bits                  Allocated to registers ;size:1
                                           ;@delay_ms IOP1bits                  Allocated to registers ;size:1
                                           ;@delay_ms OEP1bits                  Allocated to registers ;size:1
                                           ;@delay_ms PUP1bits                  Allocated to registers ;size:1
                                           ;@delay_ms PDP1bits                  Allocated to registers ;size:1
                                           ;@delay_ms T0CRbits                  Allocated to registers ;size:1
                                           ;@delay_ms T0CNTbits                 Allocated to registers ;size:1
                                           ;@delay_ms T0LOADbits                Allocated to registers ;size:1
                                           ;@delay_ms T0DATAbits                Allocated to registers ;size:1
                                           ;@delay_ms T1CRbits                  Allocated to registers ;size:1
                                           ;@delay_ms T1CNTbits                 Allocated to registers ;size:1
                                           ;@delay_ms T1LOADbits                Allocated to registers ;size:1
                                           ;@delay_ms T1DATAbits                Allocated to registers ;size:1
                                           ;@delay_ms T2CRbits                  Allocated to registers ;size:1
                                           ;@delay_ms T2CNTbits                 Allocated to registers ;size:1
                                           ;@delay_ms T2LOADbits                Allocated to registers ;size:1
                                           ;@delay_ms T2DATAbits                Allocated to registers ;size:1
                                           ;@delay_ms T3CRbits                  Allocated to registers ;size:1
                                           ;@delay_ms T3CNTbits                 Allocated to registers ;size:1
                                           ;@delay_ms T3LOADbits                Allocated to registers ;size:1
                                           ;@delay_ms PWM0DRbits                Allocated to registers ;size:1
                                           ;@delay_ms PWM1DRbits                Allocated to registers ;size:1
                                           ;@delay_ms PWM2DRbits                Allocated to registers ;size:1
                                           ;@delay_ms PWMCR0bits                Allocated to registers ;size:1
                                           ;@delay_ms PWMCR1bits                Allocated to registers ;size:1
                                           ;@delay_ms OSCMRbits                 Allocated to registers ;size:1
                                           ;@delay_ms LVDCRbits                 Allocated to registers ;size:1
                                           ;@delay_ms ADCR0bits                 Allocated to registers ;size:1
                                           ;@delay_ms ADCR1bits                 Allocated to registers ;size:1
                                           ;@delay_ms ADCR2bits                 Allocated to registers ;size:1
                                           ;@delay_ms OSADJCRbits               Allocated to registers ;size:1
                                           ;@delay_ms ADRHbits                  Allocated to registers ;size:1
                                           ;@delay_ms ADRLbits                  Allocated to registers ;size:1
                                           ;@delay_ms P0ADCRbits                Allocated to registers ;size:1
                                           ;@delay_ms P1ADCRbits                Allocated to registers ;size:1
                                           ;@delay_ms IOP2bits                  Allocated to registers ;size:1
                                           ;@delay_ms OEP2bits                  Allocated to registers ;size:1
                                           ;@delay_ms PUP2bits                  Allocated to registers ;size:1
                                           ;@delay_ms PDP2bits                  Allocated to registers ;size:1
                                           ;@delay_ms PMODbits                  Allocated to registers ;size:1
                                           ;@delay_ms PWMCR3bits                Allocated to registers ;size:1
                                           ;@delay_ms PWMCR2bits                Allocated to registers ;size:1
                                           ;@delay_ms PFRCCRbits                Allocated to registers ;size:1
                                           ;@delay_ms PFRCCALbits               Allocated to registers ;size:1
                                           ;@delay_ms EECRbits                  Allocated to registers ;size:1
                                           ;@delay_ms EEPRbits                  Allocated to registers ;size:1
                                           ;@delay_ms EEARbits                  Allocated to registers ;size:1
                                           ;@delay_ms EEDRHbits                 Allocated to registers ;size:1
                                           ;@delay_ms EEDRLbits                 Allocated to registers ;size:1
                                           ;@delay_ms DBGCRbits                 Allocated to registers ;size:1
                                           ;@delay_ms DBGPRbits                 Allocated to registers ;size:1
                                           ;@delay_ms HIRCCALbits               Allocated to registers ;size:1
                                           ;@delay_ms key_event                 Allocated to registers ;size:1
                                           ;@delay_ms mode_flag                 Allocated to registers ;size:1
                                           ;@delay_ms sub_mode_status           Allocated to registers ;size:1
                                           ;@delay_ms key_press_flag            Allocated to registers ;size:1
                                           ;@delay_ms i                         Allocated to registers ;size:1
                                           ;@delay_ms adc_val                   Allocated to registers ;size:2
                                           ;@delay_ms turn_dir_ms_cnt           Allocated to registers ;size:4
                                           ;@delay_ms shut_down_ms_cnt          Allocated to registers ;size:4
                                           ;@delay_ms adc_bat_val               Allocated to registers ;size:4
                                           ;@delay_ms adc_charging_val          Allocated to registers ;size:2
                                           ;@delay_ms max_pwm_val               Allocated to registers ;size:4
                                           ;@delay_ms last_pwm_val              Allocated to registers ;size:2
                                           ;@delay_ms tmp_val                   Allocated to registers ;size:2
                                           ;@delay_ms tmp_val_l                 Allocated to registers ;size:16
                                           ;@delay_ms tmp_val_cnt               Allocated to registers ;size:1
                                           ;@delay_ms tmp_bat_val               Allocated to registers ;size:2
                                           ;@delay_ms over_charging_cnt         Allocated to registers ;size:1
                                           ;@delay_ms full_charge_cnt           Allocated to registers ;size:1
                                           ;@delay_ms pwm_duty                  Allocated to registers ;size:1
                                           ;@delay_ms pwm_counter               Allocated to registers ;size:2
                                           ;@delay_ms breath_counter            Allocated to registers ;size:1
                                           ;@delay_ms breath_direction          Allocated to registers ;size:1
                                           ;@delay_ms led_state                 Allocated to registers ;size:1
                                           ;@delay_ms abuf                      Allocated to registers ;size:1
                                           ;@delay_ms statusbuf                 Allocated to registers ;size:1
                                           ;@delay_ms flag1                     Allocated to registers ;size:1
                                           ;@delay_ms flag2                     Allocated to registers ;size:1
                                           ;@delay_ms flag3                     Allocated to registers ;size:1
                                           ;@delay_ms xms                       Allocated to registers ;size:2
                                           ;@delay_ms i                         Allocated to registers r0x1050 r0x1051 ;size:2
                                           ;@delay_ms INDF0                     Allocated to registers ;size:1
                                           ;@delay_ms INDF1                     Allocated to registers ;size:1
                                           ;@delay_ms INDF2                     Allocated to registers ;size:1
                                           ;@delay_ms HIBYTE                    Allocated to registers ;size:1
                                           ;@delay_ms FSR0                      Allocated to registers ;size:1
                                           ;@delay_ms FSR1                      Allocated to registers ;size:1
                                           ;@delay_ms PCL                       Allocated to registers ;size:1
                                           ;@delay_ms PFLAG                     Allocated to registers ;size:1
                                           ;@delay_ms MCR                       Allocated to registers ;size:1
                                           ;@delay_ms INDF3                     Allocated to registers ;size:1
                                           ;@delay_ms INTE                      Allocated to registers ;size:1
                                           ;@delay_ms INTF                      Allocated to registers ;size:1
                                           ;@delay_ms DRVCR                     Allocated to registers ;size:1
                                           ;@delay_ms P0KBCR                    Allocated to registers ;size:1
                                           ;@delay_ms P1KBCR                    Allocated to registers ;size:1
                                           ;@delay_ms P2KBCR                    Allocated to registers ;size:1
                                           ;@delay_ms IOP0                      Allocated to registers ;size:1
                                           ;@delay_ms OEP0                      Allocated to registers ;size:1
                                           ;@delay_ms PUP0                      Allocated to registers ;size:1
                                           ;@delay_ms PDP0                      Allocated to registers ;size:1
                                           ;@delay_ms IOP1                      Allocated to registers ;size:1
                                           ;@delay_ms OEP1                      Allocated to registers ;size:1
                                           ;@delay_ms PUP1                      Allocated to registers ;size:1
                                           ;@delay_ms PDP1                      Allocated to registers ;size:1
                                           ;@delay_ms T0CR                      Allocated to registers ;size:1
                                           ;@delay_ms T0CNT                     Allocated to registers ;size:1
                                           ;@delay_ms T0LOAD                    Allocated to registers ;size:1
                                           ;@delay_ms T0DATA                    Allocated to registers ;size:1
                                           ;@delay_ms T1CR                      Allocated to registers ;size:1
                                           ;@delay_ms T1CNT                     Allocated to registers ;size:1
                                           ;@delay_ms T1LOAD                    Allocated to registers ;size:1
                                           ;@delay_ms T1DATA                    Allocated to registers ;size:1
                                           ;@delay_ms T2CR                      Allocated to registers ;size:1
                                           ;@delay_ms T2CNT                     Allocated to registers ;size:1
                                           ;@delay_ms T2LOAD                    Allocated to registers ;size:1
                                           ;@delay_ms T2DATA                    Allocated to registers ;size:1
                                           ;@delay_ms T3CR                      Allocated to registers ;size:1
                                           ;@delay_ms T3CNT                     Allocated to registers ;size:1
                                           ;@delay_ms T3LOAD                    Allocated to registers ;size:1
                                           ;@delay_ms PWM0DR                    Allocated to registers ;size:1
                                           ;@delay_ms PWM1DR                    Allocated to registers ;size:1
                                           ;@delay_ms PWM2DR                    Allocated to registers ;size:1
                                           ;@delay_ms PWMCR0                    Allocated to registers ;size:1
                                           ;@delay_ms PWMCR1                    Allocated to registers ;size:1
                                           ;@delay_ms OSCMR                     Allocated to registers ;size:1
                                           ;@delay_ms LVDCR                     Allocated to registers ;size:1
                                           ;@delay_ms ADCR0                     Allocated to registers ;size:1
                                           ;@delay_ms ADCR1                     Allocated to registers ;size:1
                                           ;@delay_ms ADCR2                     Allocated to registers ;size:1
                                           ;@delay_ms OSADJCR                   Allocated to registers ;size:1
                                           ;@delay_ms ADRH                      Allocated to registers ;size:1
                                           ;@delay_ms ADRL                      Allocated to registers ;size:1
                                           ;@delay_ms P0ADCR                    Allocated to registers ;size:1
                                           ;@delay_ms P1ADCR                    Allocated to registers ;size:1
                                           ;@delay_ms IOP2                      Allocated to registers ;size:1
                                           ;@delay_ms OEP2                      Allocated to registers ;size:1
                                           ;@delay_ms PUP2                      Allocated to registers ;size:1
                                           ;@delay_ms PDP2                      Allocated to registers ;size:1
                                           ;@delay_ms PMOD                      Allocated to registers ;size:1
                                           ;@delay_ms PWMCR3                    Allocated to registers ;size:1
                                           ;@delay_ms PWMCR2                    Allocated to registers ;size:1
                                           ;@delay_ms PFRCCR                    Allocated to registers ;size:1
                                           ;@delay_ms PFRCCAL                   Allocated to registers ;size:1
                                           ;@delay_ms EECR                      Allocated to registers ;size:1
                                           ;@delay_ms EEPR                      Allocated to registers ;size:1
                                           ;@delay_ms EEAR                      Allocated to registers ;size:1
                                           ;@delay_ms EEDRH                     Allocated to registers ;size:1
                                           ;@delay_ms EEDRL                     Allocated to registers ;size:1
                                           ;@delay_ms DBGCR                     Allocated to registers ;size:1
                                           ;@delay_ms DBGPR                     Allocated to registers ;size:1
                                           ;@delay_ms HIRCCAL                   Allocated to registers ;size:1
                                           ;@end Allocation info for local variables in function 'delay_ms';
                                           ;@Allocation info for local variables in function 'CLR_RAM'
                                           ;@end Allocation info for local variables in function 'CLR_RAM';
                                           ;@Allocation info for local variables in function 'adc_config'
                                           ;@end Allocation info for local variables in function 'adc_config';
                                           ;@Allocation info for local variables in function 'adc_sel_pin'
                                           ;@adc_sel_pin adc_pin                   Allocated to registers r0x1054 ;size:1
                                           ;@end Allocation info for local variables in function 'adc_sel_pin';
                                           ;@Allocation info for local variables in function 'adc_get_val'
                                           ;@adc_get_val i                         Allocated to registers r0x1056 ;size:1
                                           ;@adc_get_val g_temp_value              Allocated to registers r0x1057 r0x1058 ;size:2
                                           ;@adc_get_val g_tmpbuff                 Allocated to registers r0x1052 r0x1053 r0x1059 r0x105B ;size:4
                                           ;@adc_get_val g_adcmax                  Allocated to registers r0x1052 r0x1053 ;size:2
                                           ;@adc_get_val g_adcmin                  Allocated to registers r0x1054 r0x1055 ;size:2
                                           ;@end Allocation info for local variables in function 'adc_get_val';
                                           ;@Allocation info for local variables in function 'adc_get_val_once'
                                           ;@adc_get_val_once g_temp_value              Allocated to registers r0x1051 r0x1050 ;size:2
                                           ;@end Allocation info for local variables in function 'adc_get_val_once';
                                           ;@Allocation info for local variables in function 'Sys_Init'
                                           ;@end Allocation info for local variables in function 'Sys_Init';
                                           ;@Allocation info for local variables in function 'key_scan'
                                           ;@key_scan last_key_id               Allocated to registers ;size:1
                                           ;@key_scan press_cnt                 Allocated to registers ;size:1
                                           ;@key_scan filter_cnt                Allocated to registers ;size:1
                                           ;@key_scan filter_key_id             Allocated to registers ;size:1
                                           ;@key_scan cur_key_id                Allocated to registers ;size:1
                                           ;@key_scan flag_is_key_mode_hold     Allocated to registers ;size:1
                                           ;@end Allocation info for local variables in function 'key_scan';
                                           ;@Allocation info for local variables in function 'key_scan'
                                           ;@key_scan last_key_id               Allocated to registers ;size:1
                                           ;@key_scan press_cnt                 Allocated to registers ;size:1
                                           ;@key_scan filter_cnt                Allocated to registers ;size:1
                                           ;@key_scan filter_key_id             Allocated to registers ;size:1
                                           ;@key_scan cur_key_id                Allocated to registers ;size:1
                                           ;@key_scan flag_is_key_mode_hold     Allocated to registers ;size:1
                                           ;@end Allocation info for local variables in function 'key_scan';
                                           ;@Allocation info for local variables in function 'key_event_handle'
                                           ;@end Allocation info for local variables in function 'key_event_handle';
                                           ;@Allocation info for local variables in function 'adc_scan_handle'
                                           ;@adc_scan_handle cnt                       Allocated to registers ;size:1
                                           ;@adc_scan_handle need_charge_cnt           Allocated to registers ;size:1
                                           ;@end Allocation info for local variables in function 'adc_scan_handle';
                                           ;@Allocation info for local variables in function 'turn_dir_scan_handle'
                                           ;@end Allocation info for local variables in function 'turn_dir_scan_handle';
                                           ;@Allocation info for local variables in function 'shutdown_scan_handle'
                                           ;@end Allocation info for local variables in function 'shutdown_scan_handle';
                                           ;@Allocation info for local variables in function 'low_power_scan_handle'
                                           ;@end Allocation info for local variables in function 'low_power_scan_handle';
                                           ;@Allocation info for local variables in function 'main'
                                           ;@main i                         Allocated to registers r0x105D r0x105E ;size:2
                                           ;@end Allocation info for local variables in function 'main';
                                           ;@Allocation info for local variables in function 'int_isr'
                                           ;@int_isr __1ms_cnt                 Allocated to registers ;size:1
                                           ;@int_isr key_scan_cnt              Allocated to registers ;size:1
                                           ;@int_isr cnt                       Allocated to registers ;size:2
                                           ;@int_isr low_bat_cnt               Allocated to registers ;size:2
                                           ;@int_isr shut_down_bat_cnt         Allocated to registers ;size:2
                                           ;@int_isr update_current_time_cnt   Allocated to registers ;size:2
                                           ;@int_isr cnt                       Allocated to registers ;size:2
                                           ;@end Allocation info for local variables in function 'int_isr';
                                           ;@Allocation info for local variables in function 'int_isr'
                                           ;@int_isr __1ms_cnt                 Allocated to registers ;size:1
                                           ;@int_isr key_scan_cnt              Allocated to registers ;size:1
                                           ;@int_isr cnt                       Allocated to registers ;size:2
                                           ;@int_isr low_bat_cnt               Allocated to registers ;size:2
                                           ;@int_isr shut_down_bat_cnt         Allocated to registers ;size:2
                                           ;@int_isr update_current_time_cnt   Allocated to registers ;size:2
                                           ;@int_isr cnt                       Allocated to registers ;size:2
                                           ;@end Allocation info for local variables in function 'int_isr';
                                           
                                           ;--------------------------------------------------------
                                           ; overlayable items in internal ram 
                                           ;--------------------------------------------------------
                                           ;	udata_ovr
                                           ;--------------------------------------------------------
                                           ; reset vector 
                                           ;--------------------------------------------------------
                                           STARTUP	code 0x0000
                                           	goto	_main
                                           ;--------------------------------------------------------
                                           ; interrupt and initialization code
                                           ;--------------------------------------------------------
                                           c_interrupt	code	0x8
                                           __sdcc_interrupt
                                           ;***
                                           ;  pBlock Stats: dbName = I
                                           ;***
                                           ;entry:  _int_isr	;Function start
                                           ; 0 exit points
                                           ;functions called:
                                           ;   _key_scan
                                           ;   _key_scan
                                           ;2 compiler assigned registers:
                                           ;   r0x1068
                                           ;   r0x1069
                                           ;; Starting pCode block
                                           _int_isr	;Function start
                                           ; 0 exit points
                                           ;	.line	1097; "MC32F7361.c"	__endasm;
                                           	;
                                           	movra	_abuf;
                                           	swapar	_PFLAG;
                                           	movra	_statusbuf;
                                           	
                                           ;	.line	1107; "MC32F7361.c"	if (T3IF & T3IE)
                                           	CLRR	r0x1068
                                           	JBCLR	_INTFbits,7
                                           	INCR	r0x1068
                                           	CLRR	r0x1069
                                           	JBCLR	_INTEbits,7
                                           	INCR	r0x1069
                                           	MOVAR	r0x1069
                                           	ANDRA	r0x1068
                                           	MOVAI	0x00
                                           	ORAR	r0x1068
                                           	JBCLR	PFLAG,2
                                           	GOTO	_01048_DS_
                                           ;	.line	1111; "MC32F7361.c"	__1ms_cnt++;
                                           	INCR	_int_isr___1ms_cnt_196608_209
                                           ;;unsigned compare: left < lit(0xA=10), size=1
                                           ;	.line	1112; "MC32F7361.c"	if (__1ms_cnt >= 10)
                                           	MOVAI	0x0a
                                           	RSUBAR	_int_isr___1ms_cnt_196608_209
                                           	JBSET	PFLAG,0
                                           	GOTO	_01019_DS_
                                           ;;genSkipc:3291: created from rifx:013B5EFC
                                           ;	.line	1114; "MC32F7361.c"	__1ms_cnt = 0;
                                           	CLRR	_int_isr___1ms_cnt_196608_209
                                           ;	.line	1118; "MC32F7361.c"	key_scan_cnt++;
                                           	INCR	_int_isr_key_scan_cnt_327680_211
                                           ;;unsigned compare: left < lit(0xA=10), size=1
                                           ;	.line	1119; "MC32F7361.c"	if (key_scan_cnt >= 10)
                                           	MOVAI	0x0a
                                           	RSUBAR	_int_isr_key_scan_cnt_327680_211
                                           	JBSET	PFLAG,0
                                           	GOTO	_00987_DS_
                                           ;;genSkipc:3291: created from rifx:013B5EFC
                                           ;	.line	1121; "MC32F7361.c"	key_scan_cnt = 0;
                                           	CLRR	_int_isr_key_scan_cnt_327680_211
                                           ;	.line	1122; "MC32F7361.c"	key_scan();
                                           	CALL	_key_scan
                                           _00987_DS_
                                           ;	.line	1128; "MC32F7361.c"	if (sub_mode_status == SUB_MODE_1_BEGIN)
                                           	MOVAR	_sub_mode_status
                                           	XORAI	0x01
                                           	JBSET	PFLAG,2
                                           	GOTO	_00997_DS_
                                           ;	.line	1130; "MC32F7361.c"	cnt = 0;
                                           	CLRR	_int_isr_cnt_327680_213
                                           	CLRR	(_int_isr_cnt_327680_213 + 1)
                                           ;	.line	1131; "MC32F7361.c"	HEATING_ON();
                                           	BSET	_IOP1bits,2
                                           ;	.line	1132; "MC32F7361.c"	PWM1EC = 0;
                                           	BCLR	_T1CRbits,6
                                           ;	.line	1133; "MC32F7361.c"	sub_mode_status = SUB_MODE_1_HANDLING;
                                           	MOVAI	0x02
                                           	MOVRA	_sub_mode_status
                                           	GOTO	_00998_DS_
                                           _00997_DS_
                                           ;	.line	1135; "MC32F7361.c"	else if (sub_mode_status == SUB_MODE_1_HANDLING)
                                           	MOVAR	_sub_mode_status
                                           	XORAI	0x02
                                           	JBSET	PFLAG,2
                                           	GOTO	_00994_DS_
                                           ;	.line	1137; "MC32F7361.c"	cnt++;
                                           	INCR	_int_isr_cnt_327680_213
                                           	JBCLR	PFLAG,2
                                           	INCR	(_int_isr_cnt_327680_213 + 1)
                                           ;;unsigned compare: left < lit(0x3E8=1000), size=2
                                           ;	.line	1138; "MC32F7361.c"	if (cnt >= 1000)
                                           	MOVAI	0x03
                                           	RSUBAR	(_int_isr_cnt_327680_213 + 1)
                                           	JBSET	PFLAG,2
                                           	GOTO	_01145_DS_
                                           	MOVAI	0xe8
                                           	RSUBAR	_int_isr_cnt_327680_213
                                           _01145_DS_
                                           	JBSET	PFLAG,0
                                           	GOTO	_00998_DS_
                                           ;;genSkipc:3291: created from rifx:013B5EFC
                                           ;	.line	1140; "MC32F7361.c"	cnt = 0;
                                           	CLRR	_int_isr_cnt_327680_213
                                           	CLRR	(_int_isr_cnt_327680_213 + 1)
                                           ;	.line	1141; "MC32F7361.c"	PWM0EC = 1;
                                           	BSET	_T0CRbits,6
                                           ;	.line	1142; "MC32F7361.c"	sub_mode_status = SUB_MODE_1_END;
                                           	MOVAI	0x03
                                           	MOVRA	_sub_mode_status
                                           	GOTO	_00998_DS_
                                           _00994_DS_
                                           ;	.line	1147; "MC32F7361.c"	cnt = 0;
                                           	CLRR	_int_isr_cnt_327680_213
                                           	CLRR	(_int_isr_cnt_327680_213 + 1)
                                           _00998_DS_
                                           ;	.line	1151; "MC32F7361.c"	if (FLAG_IS_DEVICE_OPEN)
                                           	JBSET	_flag1,0
                                           	GOTO	_01000_DS_
                                           ;	.line	1153; "MC32F7361.c"	turn_dir_ms_cnt++;  //  turn_dir_scan_handle() 
                                           	INCR	_turn_dir_ms_cnt
                                           	JBCLR	PFLAG,2
                                           	INCR	(_turn_dir_ms_cnt + 1)
                                           	JBCLR	PFLAG,2
                                           	INCR	(_turn_dir_ms_cnt + 2)
                                           	JBCLR	PFLAG,2
                                           	INCR	(_turn_dir_ms_cnt + 3)
                                           ;	.line	1154; "MC32F7361.c"	shut_down_ms_cnt++; //  shutdown_scan_handle() 
                                           	INCR	_shut_down_ms_cnt
                                           	JBCLR	PFLAG,2
                                           	INCR	(_shut_down_ms_cnt + 1)
                                           	JBCLR	PFLAG,2
                                           	INCR	(_shut_down_ms_cnt + 2)
                                           	JBCLR	PFLAG,2
                                           	INCR	(_shut_down_ms_cnt + 3)
                                           _01000_DS_
                                           ;	.line	1160; "MC32F7361.c"	if (flag_maybe_low_battery)
                                           	JBSET	_flag3,2
                                           	GOTO	_01004_DS_
                                           ;	.line	1162; "MC32F7361.c"	low_bat_cnt++;
                                           	INCR	_int_isr_low_bat_cnt_327680_221
                                           	JBCLR	PFLAG,2
                                           	INCR	(_int_isr_low_bat_cnt_327680_221 + 1)
                                           ;;unsigned compare: left < lit(0x1388=5000), size=2
                                           ;	.line	1163; "MC32F7361.c"	if (low_bat_cnt >= 5000) // xx ms
                                           	MOVAI	0x13
                                           	RSUBAR	(_int_isr_low_bat_cnt_327680_221 + 1)
                                           	JBSET	PFLAG,2
                                           	GOTO	_01146_DS_
                                           	MOVAI	0x88
                                           	RSUBAR	_int_isr_low_bat_cnt_327680_221
                                           _01146_DS_
                                           	JBSET	PFLAG,0
                                           	GOTO	_01005_DS_
                                           ;;genSkipc:3291: created from rifx:013B5EFC
                                           ;	.line	1165; "MC32F7361.c"	low_bat_cnt = 0;
                                           	CLRR	_int_isr_low_bat_cnt_327680_221
                                           	CLRR	(_int_isr_low_bat_cnt_327680_221 + 1)
                                           ;	.line	1166; "MC32F7361.c"	flag_is_low_battery = 1;
                                           	BSET	_flag2,2
                                           	GOTO	_01005_DS_
                                           _01004_DS_
                                           ;	.line	1171; "MC32F7361.c"	low_bat_cnt = 0;
                                           	CLRR	_int_isr_low_bat_cnt_327680_221
                                           	CLRR	(_int_isr_low_bat_cnt_327680_221 + 1)
                                           _01005_DS_
                                           ;	.line	1177; "MC32F7361.c"	if (flag_tim_scan_maybe_shut_down)
                                           	JBSET	_flag3,3
                                           	GOTO	_01009_DS_
                                           ;	.line	1179; "MC32F7361.c"	shut_down_bat_cnt++;
                                           	INCR	_int_isr_shut_down_bat_cnt_327680_225
                                           	JBCLR	PFLAG,2
                                           	INCR	(_int_isr_shut_down_bat_cnt_327680_225 + 1)
                                           ;;unsigned compare: left < lit(0x3E8=1000), size=2
                                           ;	.line	1180; "MC32F7361.c"	if (shut_down_bat_cnt >= 1000) // xx ms
                                           	MOVAI	0x03
                                           	RSUBAR	(_int_isr_shut_down_bat_cnt_327680_225 + 1)
                                           	JBSET	PFLAG,2
                                           	GOTO	_01147_DS_
                                           	MOVAI	0xe8
                                           	RSUBAR	_int_isr_shut_down_bat_cnt_327680_225
                                           _01147_DS_
                                           	JBSET	PFLAG,0
                                           	GOTO	_01010_DS_
                                           ;;genSkipc:3291: created from rifx:013B5EFC
                                           ;	.line	1182; "MC32F7361.c"	shut_down_bat_cnt = 0;
                                           	CLRR	_int_isr_shut_down_bat_cnt_327680_225
                                           	CLRR	(_int_isr_shut_down_bat_cnt_327680_225 + 1)
                                           ;	.line	1183; "MC32F7361.c"	flag_is_needed_shut_down = 1;
                                           	BSET	_flag3,4
                                           	GOTO	_01010_DS_
                                           _01009_DS_
                                           ;	.line	1188; "MC32F7361.c"	shut_down_bat_cnt = 0;
                                           	CLRR	_int_isr_shut_down_bat_cnt_327680_225
                                           	CLRR	(_int_isr_shut_down_bat_cnt_327680_225 + 1)
                                           ;	.line	1189; "MC32F7361.c"	flag_is_needed_shut_down = 0;
                                           	BCLR	_flag3,4
                                           _01010_DS_
                                           ;	.line	1195; "MC32F7361.c"	if (FLAG_IS_IN_CHARGING)
                                           	JBSET	_flag1,2
                                           	GOTO	_01014_DS_
                                           ;	.line	1197; "MC32F7361.c"	update_current_time_cnt++;
                                           	INCR	_int_isr_update_current_time_cnt_327680_229
                                           	JBCLR	PFLAG,2
                                           	INCR	(_int_isr_update_current_time_cnt_327680_229 + 1)
                                           ;;unsigned compare: left < lit(0x1F4=500), size=2
                                           ;	.line	1198; "MC32F7361.c"	if (update_current_time_cnt >= 500)
                                           	MOVAI	0x01
                                           	RSUBAR	(_int_isr_update_current_time_cnt_327680_229 + 1)
                                           	JBSET	PFLAG,2
                                           	GOTO	_01148_DS_
                                           	MOVAI	0xf4
                                           	RSUBAR	_int_isr_update_current_time_cnt_327680_229
                                           _01148_DS_
                                           	JBSET	PFLAG,0
                                           	GOTO	_01015_DS_
                                           ;;genSkipc:3291: created from rifx:013B5EFC
                                           ;	.line	1200; "MC32F7361.c"	update_current_time_cnt = 0;
                                           	CLRR	_int_isr_update_current_time_cnt_327680_229
                                           	CLRR	(_int_isr_update_current_time_cnt_327680_229 + 1)
                                           ;	.line	1201; "MC32F7361.c"	flag_is_update_current = 1;
                                           	BSET	_flag3,5
                                           	GOTO	_01015_DS_
                                           _01014_DS_
                                           ;	.line	1206; "MC32F7361.c"	FLAG_IS_IN_CHARGING = 0;
                                           	BCLR	_flag1,2
                                           _01015_DS_
                                           ;	.line	1213; "MC32F7361.c"	cnt++;
                                           	INCR	_int_isr_cnt_327680_233
                                           	JBCLR	PFLAG,2
                                           	INCR	(_int_isr_cnt_327680_233 + 1)
                                           ;;swapping arguments (AOP_TYPEs 1/3)
                                           ;;unsigned compare: left >= lit(0x1F5=501), size=2
                                           ;	.line	1214; "MC32F7361.c"	if (cnt > 500)
                                           	MOVAI	0x01
                                           	RSUBAR	(_int_isr_cnt_327680_233 + 1)
                                           	JBSET	PFLAG,2
                                           	GOTO	_01149_DS_
                                           	MOVAI	0xf5
                                           	RSUBAR	_int_isr_cnt_327680_233
                                           _01149_DS_
                                           	JBSET	PFLAG,0
                                           	GOTO	_01019_DS_
                                           ;;genSkipc:3291: created from rifx:013B5EFC
                                           ;	.line	1216; "MC32F7361.c"	cnt = 0;
                                           	CLRR	_int_isr_cnt_327680_233
                                           	CLRR	(_int_isr_cnt_327680_233 + 1)
                                           ;	.line	1217; "MC32F7361.c"	flag_is_adjust_pwm_time_comes = 1;
                                           	BSET	_flag3,6
                                           _01019_DS_
                                           ;	.line	1224; "MC32F7361.c"	if (FLAG_IS_IN_CHARGING && 0 == FLAG_BAT_IS_FULL)
                                           	JBSET	_flag1,2
                                           	GOTO	_01045_DS_
                                           	JBCLR	_flag1,5
                                           	GOTO	_01045_DS_
                                           ;	.line	1227; "MC32F7361.c"	if (pwm_counter < pwm_duty)
                                           	MOVAR	_pwm_duty
                                           	MOVRA	r0x1068
                                           	CLRR	r0x1069
                                           	MOVAI	0x00
                                           	RSUBAR	(_pwm_counter + 1)
                                           	JBSET	PFLAG,2
                                           	GOTO	_01150_DS_
                                           	MOVAR	r0x1068
                                           	RSUBAR	_pwm_counter
                                           _01150_DS_
                                           	JBCLR	PFLAG,0
                                           	GOTO	_01021_DS_
                                           ;;genSkipc:3291: created from rifx:013B5EFC
                                           ;	.line	1229; "MC32F7361.c"	led_state = 1; // LED
                                           	MOVAI	0x01
                                           	MOVRA	_led_state
                                           	GOTO	_01022_DS_
                                           _01021_DS_
                                           ;	.line	1233; "MC32F7361.c"	led_state = 0; // LED
                                           	CLRR	_led_state
                                           _01022_DS_
                                           ;	.line	1237; "MC32F7361.c"	pwm_counter++;
                                           	INCR	_pwm_counter
                                           	JBCLR	PFLAG,2
                                           	INCR	(_pwm_counter + 1)
                                           ;;unsigned compare: left < lit(0x64=100), size=2
                                           ;	.line	1238; "MC32F7361.c"	if (pwm_counter >= PWM_MAX_LEVEL)
                                           	MOVAI	0x00
                                           	RSUBAR	(_pwm_counter + 1)
                                           	JBSET	PFLAG,2
                                           	GOTO	_01151_DS_
                                           	MOVAI	0x64
                                           	RSUBAR	_pwm_counter
                                           _01151_DS_
                                           	JBSET	PFLAG,0
                                           	GOTO	_01024_DS_
                                           ;;genSkipc:3291: created from rifx:013B5EFC
                                           ;	.line	1240; "MC32F7361.c"	pwm_counter = 0;
                                           	CLRR	_pwm_counter
                                           	CLRR	(_pwm_counter + 1)
                                           _01024_DS_
                                           ;	.line	1244; "MC32F7361.c"	breath_counter++;
                                           	INCR	_breath_counter
                                           ;;unsigned compare: left < lit(0xC8=200), size=1
                                           ;	.line	1245; "MC32F7361.c"	if (breath_counter >= BREATH_PERIOD)
                                           	MOVAI	0xc8
                                           	RSUBAR	_breath_counter
                                           	JBSET	PFLAG,0
                                           	GOTO	_01034_DS_
                                           ;;genSkipc:3291: created from rifx:013B5EFC
                                           ;	.line	1247; "MC32F7361.c"	breath_counter = 0;
                                           	CLRR	_breath_counter
                                           ;	.line	1250; "MC32F7361.c"	if (breath_direction == 0)
                                           	MOVAI	0x00
                                           	ORAR	_breath_direction
                                           	JBSET	PFLAG,2
                                           	GOTO	_01031_DS_
                                           ;	.line	1253; "MC32F7361.c"	pwm_duty++;
                                           	INCR	_pwm_duty
                                           ;;unsigned compare: left < lit(0x64=100), size=1
                                           ;	.line	1254; "MC32F7361.c"	if (pwm_duty >= PWM_MAX_LEVEL)
                                           	MOVAI	0x64
                                           	RSUBAR	_pwm_duty
                                           	JBSET	PFLAG,0
                                           	GOTO	_01034_DS_
                                           ;;genSkipc:3291: created from rifx:013B5EFC
                                           ;	.line	1256; "MC32F7361.c"	pwm_duty = PWM_MAX_LEVEL;
                                           	MOVAI	0x64
                                           	MOVRA	_pwm_duty
                                           ;	.line	1257; "MC32F7361.c"	breath_direction = 1; // 
                                           	MOVAI	0x01
                                           	MOVRA	_breath_direction
                                           	GOTO	_01034_DS_
                                           _01031_DS_
                                           ;	.line	1263; "MC32F7361.c"	if (pwm_duty > 0)
                                           	MOVAI	0x00
                                           	ORAR	_pwm_duty
                                           	JBCLR	PFLAG,2
                                           	GOTO	_01028_DS_
                                           ;	.line	1265; "MC32F7361.c"	pwm_duty--;
                                           	DECR	_pwm_duty
                                           	GOTO	_01034_DS_
                                           _01028_DS_
                                           ;	.line	1269; "MC32F7361.c"	pwm_duty = 0;
                                           	CLRR	_pwm_duty
                                           ;	.line	1270; "MC32F7361.c"	breath_direction = 0; // 
                                           	CLRR	_breath_direction
                                           _01034_DS_
                                           ;	.line	1277; "MC32F7361.c"	if (led_state)
                                           	MOVAI	0x00
                                           	ORAR	_led_state
                                           	JBCLR	PFLAG,2
                                           	GOTO	_01038_DS_
                                           ;	.line	1280; "MC32F7361.c"	LED_RED_ON();
                                           	BCLR	_IOP1bits,4
                                           	GOTO	_01045_DS_
                                           _01038_DS_
                                           ;	.line	1285; "MC32F7361.c"	LED_RED_OFF();
                                           	BSET	_IOP1bits,4
                                           _01045_DS_
                                           ;	.line	1289; "MC32F7361.c"	T3IF = 0;
                                           	BCLR	_INTFbits,7
                                           _01048_DS_
                                           ;	.line	1299; "MC32F7361.c"	__endasm;
                                           	;
                                           	swapar	_statusbuf;
                                           	movra	_PFLAG;
                                           	swapr	_abuf;
                                           	swapar	_abuf;
                                           	
                                           END_OF_INTERRUPT
                                           ;	.line	1300; "MC32F7361.c"	}
                                           	RETIE	
                                           
                                           ;--------------------------------------------------------
                                           ; code
                                           ;--------------------------------------------------------
                                           code_MC32F7361	code
                                           ;***
                                           ;  pBlock Stats: dbName = M
                                           ;***
                                           ;entry:  _main	;Function start
                                           ; 2 exit points
                                           ;has an exit
                                           ;functions called:
                                           ;   _Sys_Init
                                           ;   _adc_sel_pin
                                           ;   _adc_get_val
                                           ;   _delay_ms
                                           ;   _delay_ms
                                           ;   _key_event_handle
                                           ;   _adc_scan_handle
                                           ;   _turn_dir_scan_handle
                                           ;   _shutdown_scan_handle
                                           ;   __mullong
                                           ;   __divulong
                                           ;   __mullong
                                           ;   __mullong
                                           ;   __divulong
                                           ;   __divulong
                                           ;   _delay_ms
                                           ;   _delay_ms
                                           ;   _key_event_handle
                                           ;   _delay_ms
                                           ;   _key_event_handle
                                           ;   _delay_ms
                                           ;   _low_power_scan_handle
                                           ;   _Sys_Init
                                           ;   _adc_sel_pin
                                           ;   _adc_get_val
                                           ;   _delay_ms
                                           ;   _delay_ms
                                           ;   _key_event_handle
                                           ;   _adc_scan_handle
                                           ;   _turn_dir_scan_handle
                                           ;   _shutdown_scan_handle
                                           ;   __mullong
                                           ;   __divulong
                                           ;   __mullong
                                           ;   __mullong
                                           ;   __divulong
                                           ;   __divulong
                                           ;   _delay_ms
                                           ;   _delay_ms
                                           ;   _key_event_handle
                                           ;   _delay_ms
                                           ;   _key_event_handle
                                           ;   _delay_ms
                                           ;   _low_power_scan_handle
                                           ;17 compiler assigned registers:
                                           ;   STK00
                                           ;   r0x105D
                                           ;   r0x105E
                                           ;   STK06
                                           ;   STK05
                                           ;   STK04
                                           ;   STK03
                                           ;   STK02
                                           ;   STK01
                                           ;   r0x105F
                                           ;   r0x1060
                                           ;   r0x1061
                                           ;   r0x1062
                                           ;   r0x1063
                                           ;   r0x1064
                                           ;   r0x1065
                                           ;   r0x1066
                                           ;; Starting pCode block
                                           _main	;Function start
                                           ; 2 exit points
                                           ;	.line	814; "MC32F7361.c"	Sys_Init();
                                           	CALL	_Sys_Init
                                           ;	.line	819; "MC32F7361.c"	PWM2EC = 1; // pwm
                                           	BSET	_T2CRbits,6
                                           ;	.line	820; "MC32F7361.c"	T2DATA = 100;
                                           	MOVAI	0x64
                                           	MOVRA	_T2DATA
                                           ;	.line	821; "MC32F7361.c"	adc_sel_pin(ADC_PIN_P02_AN1); // 
                                           	MOVAI	0x02
                                           	CALL	_adc_sel_pin
                                           ;	.line	822; "MC32F7361.c"	for (i = 0; i < 10; i++)      // 55ms4.8ms
                                           	CLRR	_i
                                           ;;unsigned compare: left < lit(0xA=10), size=1
                                           _00853_DS_
                                           	MOVAI	0x0a
                                           	RSUBAR	_i
                                           	JBCLR	PFLAG,0
                                           	GOTO	_00792_DS_
                                           ;;genSkipc:3291: created from rifx:013B5EFC
                                           ;	.line	824; "MC32F7361.c"	adc_val = adc_get_val();
                                           	CALL	_adc_get_val
                                           	MOVRA	(_adc_val + 1)
                                           	MOVAR	STK00
                                           	MOVRA	_adc_val
                                           ;;unsigned compare: left < lit(0xF52=3922), size=2
                                           ;	.line	825; "MC32F7361.c"	if (adc_val >= ADCDETECT_BAT_FULL + ADCDETECT_BAT_NULL_EX)
                                           	MOVAI	0x0f
                                           	RSUBAR	(_adc_val + 1)
                                           	JBSET	PFLAG,2
                                           	GOTO	_00970_DS_
                                           	MOVAI	0x52
                                           	RSUBAR	_adc_val
                                           _00970_DS_
                                           	JBSET	PFLAG,0
                                           	GOTO	_00854_DS_
                                           ;;genSkipc:3291: created from rifx:013B5EFC
                                           ;	.line	827; "MC32F7361.c"	flag_bat_is_empty = 1;
                                           	BSET	_flag3,7
                                           ;	.line	828; "MC32F7361.c"	FLAG_DURING_CHARGING_BAT_IS_NULL = 1; // 
                                           	BSET	_flag1,7
                                           _00854_DS_
                                           ;	.line	822; "MC32F7361.c"	for (i = 0; i < 10; i++)      // 55ms4.8ms
                                           	INCR	_i
                                           	GOTO	_00853_DS_
                                           _00792_DS_
                                           ;	.line	831; "MC32F7361.c"	PWM2EC = 0; // pwm
                                           	BCLR	_T2CRbits,6
                                           ;	.line	832; "MC32F7361.c"	T2DATA = 0;
                                           	CLRR	_T2DATA
                                           _00850_DS_
                                           ;	.line	838; "MC32F7361.c"	if (flag_bat_is_empty)
                                           	JBSET	_flag3,7
                                           	GOTO	_00800_DS_
                                           ;	.line	842; "MC32F7361.c"	LED_RED_ON();
                                           	BCLR	_IOP1bits,4
                                           ;	.line	843; "MC32F7361.c"	delay_ms(500);
                                           	MOVAI	0xf4
                                           	MOVRA	STK00
                                           	MOVAI	0x01
                                           	CALL	_delay_ms
                                           ;	.line	845; "MC32F7361.c"	LED_RED_OFF();
                                           	BSET	_IOP1bits,4
                                           ;	.line	846; "MC32F7361.c"	delay_ms(500);
                                           	MOVAI	0xf4
                                           	MOVRA	STK00
                                           	MOVAI	0x01
                                           	CALL	_delay_ms
                                           ;	.line	847; "MC32F7361.c"	continue;
                                           	GOTO	_00850_DS_
                                           _00800_DS_
                                           ;	.line	850; "MC32F7361.c"	key_event_handle(); // 
                                           	CALL	_key_event_handle
                                           ;	.line	851; "MC32F7361.c"	adc_scan_handle();  // (89ms)
                                           	CALL	_adc_scan_handle
                                           ;	.line	853; "MC32F7361.c"	turn_dir_scan_handle();
                                           	CALL	_turn_dir_scan_handle
                                           ;	.line	854; "MC32F7361.c"	shutdown_scan_handle(); // 
                                           	CALL	_shutdown_scan_handle
                                           ;	.line	858; "MC32F7361.c"	if (FLAG_IS_IN_CHARGING)
                                           	JBSET	_flag1,2
                                           	GOTO	_00837_DS_
                                           ;	.line	860; "MC32F7361.c"	last_pwm_val = T2DATA;      // PWM
                                           	MOVAR	_T2DATA
                                           	MOVRA	_last_pwm_val
                                           	CLRR	(_last_pwm_val + 1)
                                           ;	.line	861; "MC32F7361.c"	max_pwm_val = (T2LOAD + 1); // PWM
                                           	MOVAR	_T2LOAD
                                           	MOVRA	r0x105D
                                           	CLRR	r0x105E
                                           	MOVAI	0x01
                                           	ADDAR	r0x105D
                                           	MOVRA	_max_pwm_val
                                           	CLRR	(_max_pwm_val + 1)
                                           	RLR	(_max_pwm_val + 1)
                                           	MOVAI	0x00
                                           	ADDRA	(_max_pwm_val + 1)
                                           	CLRR	(_max_pwm_val + 2)
                                           	CLRR	(_max_pwm_val + 3)
                                           ;	.line	883; "MC32F7361.c"	tmp_bat_val = adc_bat_val;
                                           	MOVAR	_adc_bat_val
                                           	MOVRA	_tmp_bat_val
                                           	MOVAR	(_adc_bat_val + 1)
                                           	MOVRA	(_tmp_bat_val + 1)
                                           ;;swapping arguments (AOP_TYPEs 1/3)
                                           ;;unsigned compare: left >= lit(0xB16=2838), size=4
                                           ;	.line	884; "MC32F7361.c"	if (adc_bat_val <= 2837) //  6.5V
                                           	MOVAI	0x00
                                           	RSUBAR	(_adc_bat_val + 3)
                                           	JBSET	PFLAG,2
                                           	GOTO	_00971_DS_
                                           	MOVAI	0x00
                                           	RSUBAR	(_adc_bat_val + 2)
                                           	JBSET	PFLAG,2
                                           	GOTO	_00971_DS_
                                           	MOVAI	0x0b
                                           	RSUBAR	(_adc_bat_val + 1)
                                           	JBSET	PFLAG,2
                                           	GOTO	_00971_DS_
                                           	MOVAI	0x16
                                           	RSUBAR	_adc_bat_val
                                           _00971_DS_
                                           	JBCLR	PFLAG,0
                                           	GOTO	_00811_DS_
                                           ;;genSkipc:3291: created from rifx:013B5EFC
                                           ;	.line	887; "MC32F7361.c"	tmp_bat_val += 70; /* 6.25--1.026.35--1.08 */
                                           	MOVAI	0x46
                                           	ADDRA	_tmp_bat_val
                                           	JBCLR	PFLAG,0
                                           	INCR	(_tmp_bat_val + 1)
                                           	GOTO	_00812_DS_
                                           ;;swapping arguments (AOP_TYPEs 1/3)
                                           ;;unsigned compare: left >= lit(0xBF1=3057), size=4
                                           _00811_DS_
                                           ;	.line	889; "MC32F7361.c"	else if (adc_bat_val <= 3056) //  7.0V
                                           	MOVAI	0x00
                                           	RSUBAR	(_adc_bat_val + 3)
                                           	JBSET	PFLAG,2
                                           	GOTO	_00972_DS_
                                           	MOVAI	0x00
                                           	RSUBAR	(_adc_bat_val + 2)
                                           	JBSET	PFLAG,2
                                           	GOTO	_00972_DS_
                                           	MOVAI	0x0b
                                           	RSUBAR	(_adc_bat_val + 1)
                                           	JBSET	PFLAG,2
                                           	GOTO	_00972_DS_
                                           	MOVAI	0xf1
                                           	RSUBAR	_adc_bat_val
                                           _00972_DS_
                                           	JBCLR	PFLAG,0
                                           	GOTO	_00808_DS_
                                           ;;genSkipc:3291: created from rifx:013B5EFC
                                           ;	.line	892; "MC32F7361.c"	tmp_bat_val += 50; // 6.64--1.016.70--1.036.80--1.0286.90--1.10
                                           	MOVAI	0x32
                                           	ADDRA	_tmp_bat_val
                                           	JBCLR	PFLAG,0
                                           	INCR	(_tmp_bat_val + 1)
                                           	GOTO	_00812_DS_
                                           ;;swapping arguments (AOP_TYPEs 1/3)
                                           ;;unsigned compare: left >= lit(0xC75=3189), size=4
                                           _00808_DS_
                                           ;	.line	895; "MC32F7361.c"	else if (adc_bat_val <= 3188) //  7.3V
                                           	MOVAI	0x00
                                           	RSUBAR	(_adc_bat_val + 3)
                                           	JBSET	PFLAG,2
                                           	GOTO	_00973_DS_
                                           	MOVAI	0x00
                                           	RSUBAR	(_adc_bat_val + 2)
                                           	JBSET	PFLAG,2
                                           	GOTO	_00973_DS_
                                           	MOVAI	0x0c
                                           	RSUBAR	(_adc_bat_val + 1)
                                           	JBSET	PFLAG,2
                                           	GOTO	_00973_DS_
                                           	MOVAI	0x75
                                           	RSUBAR	_adc_bat_val
                                           _00973_DS_
                                           	JBCLR	PFLAG,0
                                           	GOTO	_00805_DS_
                                           ;;genSkipc:3291: created from rifx:013B5EFC
                                           ;	.line	898; "MC32F7361.c"	tmp_bat_val += 35; // 7.20--1.087.25--1.04
                                           	MOVAI	0x23
                                           	ADDRA	_tmp_bat_val
                                           	JBCLR	PFLAG,0
                                           	INCR	(_tmp_bat_val + 1)
                                           	GOTO	_00812_DS_
                                           ;;swapping arguments (AOP_TYPEs 1/3)
                                           ;;unsigned compare: left >= lit(0xCFF=3327), size=4
                                           _00805_DS_
                                           ;	.line	902; "MC32F7361.c"	else if (adc_bat_val <= 3326) //  7.62V
                                           	MOVAI	0x00
                                           	RSUBAR	(_adc_bat_val + 3)
                                           	JBSET	PFLAG,2
                                           	GOTO	_00974_DS_
                                           	MOVAI	0x00
                                           	RSUBAR	(_adc_bat_val + 2)
                                           	JBSET	PFLAG,2
                                           	GOTO	_00974_DS_
                                           	MOVAI	0x0c
                                           	RSUBAR	(_adc_bat_val + 1)
                                           	JBSET	PFLAG,2
                                           	GOTO	_00974_DS_
                                           	MOVAI	0xff
                                           	RSUBAR	_adc_bat_val
                                           _00974_DS_
                                           	JBCLR	PFLAG,0
                                           	GOTO	_00802_DS_
                                           ;;genSkipc:3291: created from rifx:013B5EFC
                                           ;	.line	905; "MC32F7361.c"	tmp_bat_val += 20; // 7.33--0.9917.37--1.037.40--1.0217.50--1.05
                                           	MOVAI	0x14
                                           	ADDRA	_tmp_bat_val
                                           	JBCLR	PFLAG,0
                                           	INCR	(_tmp_bat_val + 1)
                                           	GOTO	_00812_DS_
                                           _00802_DS_
                                           ;	.line	915; "MC32F7361.c"	tmp_bat_val += 15;
                                           	MOVAI	0x0f
                                           	ADDRA	_tmp_bat_val
                                           	JBCLR	PFLAG,0
                                           	INCR	(_tmp_bat_val + 1)
                                           ;	.line	926; "MC32F7361.c"	tmp_bat_val -= ((u32)adc_bat_val * 157 / 1000 - 522);
                                           	MOVAR	_adc_bat_val
                                           	MOVRA	STK06
                                           	MOVAR	(_adc_bat_val + 1)
                                           	MOVRA	STK05
                                           	MOVAR	(_adc_bat_val + 2)
                                           	MOVRA	STK04
                                           	MOVAR	(_adc_bat_val + 3)
                                           	MOVRA	STK03
                                           	MOVAI	0x9d
                                           	MOVRA	STK02
                                           	MOVAI	0x00
                                           	MOVRA	STK01
                                           	MOVAI	0x00
                                           	MOVRA	STK00
                                           	MOVAI	0x00
                                           	CALL	__mullong
                                           	MOVRA	r0x105F
                                           	MOVAR	STK00
                                           	MOVRA	r0x1060
                                           	MOVAR	STK01
                                           	MOVRA	r0x105E
                                           	MOVAR	STK02
                                           	MOVRA	r0x105D
                                           	MOVAI	0xe8
                                           	MOVRA	STK06
                                           	MOVAI	0x03
                                           	MOVRA	STK05
                                           	MOVAI	0x00
                                           	MOVRA	STK04
                                           	MOVAI	0x00
                                           	MOVRA	STK03
                                           	MOVAR	r0x105D
                                           	MOVRA	STK02
                                           	MOVAR	r0x105E
                                           	MOVRA	STK01
                                           	MOVAR	r0x1060
                                           	MOVRA	STK00
                                           	MOVAR	r0x105F
                                           	CALL	__divulong
                                           	MOVRA	r0x105F
                                           	MOVAR	STK00
                                           	MOVRA	r0x1060
                                           	MOVAR	STK01
                                           	MOVRA	r0x1062
                                           	MOVRA	r0x105E
                                           	MOVAR	STK02
                                           	MOVRA	r0x1061
                                           	MOVRA	r0x105D
                                           ;;124	MOVAR	r0x105D
                                           ;;125	MOVAR	r0x105E
                                           	MOVAI	0xf6
                                           	ADDAR	r0x1061
                                           	MOVRA	r0x105D
                                           	MOVAI	0xfd
                                           	MOVRA	r0x105E
                                           	MOVAR	r0x1062
                                           	JBCLR	PFLAG,0
                                           	JZAR	r0x1062
                                           	ADDRA	r0x105E
                                           	MOVAR	r0x105D
                                           	RSUBRA	_tmp_bat_val
                                           	MOVAR	r0x105E
                                           	JBSET	PFLAG,0
                                           	JZAR	r0x105E
                                           	RSUBRA	(_tmp_bat_val + 1)
                                           _00812_DS_
                                           ;	.line	929; "MC32F7361.c"	tmp_bat_val += 50;
                                           	MOVAI	0x32
                                           	ADDRA	_tmp_bat_val
                                           	JBCLR	PFLAG,0
                                           	INCR	(_tmp_bat_val + 1)
                                           ;;unsigned compare: left < lit(0xE27=3623), size=4
                                           ;	.line	936; "MC32F7361.c"	if (adc_bat_val >= 3623) // 8.30V , 
                                           	MOVAI	0x00
                                           	RSUBAR	(_adc_bat_val + 3)
                                           	JBSET	PFLAG,2
                                           	GOTO	_00975_DS_
                                           	MOVAI	0x00
                                           	RSUBAR	(_adc_bat_val + 2)
                                           	JBSET	PFLAG,2
                                           	GOTO	_00975_DS_
                                           	MOVAI	0x0e
                                           	RSUBAR	(_adc_bat_val + 1)
                                           	JBSET	PFLAG,2
                                           	GOTO	_00975_DS_
                                           	MOVAI	0x27
                                           	RSUBAR	_adc_bat_val
                                           _00975_DS_
                                           	JBSET	PFLAG,0
                                           	GOTO	_00817_DS_
                                           ;;genSkipc:3291: created from rifx:013B5EFC
                                           ;	.line	947; "MC32F7361.c"	for (i = 0; i < 120; i++) // 8.32--0.7378.34--0.725
                                           	CLRR	r0x105D
                                           	CLRR	r0x105E
                                           ;;swapping arguments (AOP_TYPEs 1/3)
                                           ;;unsigned compare: left >= lit(0x3=3), size=2
                                           _00855_DS_
                                           ;	.line	949; "MC32F7361.c"	if (tmp_bat_val > 2)
                                           	MOVAI	0x00
                                           	RSUBAR	(_tmp_bat_val + 1)
                                           	JBSET	PFLAG,2
                                           	GOTO	_00976_DS_
                                           	MOVAI	0x03
                                           	RSUBAR	_tmp_bat_val
                                           _00976_DS_
                                           	JBSET	PFLAG,0
                                           	GOTO	_00856_DS_
                                           ;;genSkipc:3291: created from rifx:013B5EFC
                                           ;	.line	951; "MC32F7361.c"	tmp_bat_val--;
                                           	MOVAI	0xff
                                           	ADDRA	_tmp_bat_val
                                           	JBSET	PFLAG,0
                                           	DECR	(_tmp_bat_val + 1)
                                           _00856_DS_
                                           ;	.line	947; "MC32F7361.c"	for (i = 0; i < 120; i++) // 8.32--0.7378.34--0.725
                                           	INCR	r0x105D
                                           	JBCLR	PFLAG,2
                                           	INCR	r0x105E
                                           ;;unsigned compare: left < lit(0x78=120), size=2
                                           	MOVAI	0x00
                                           	RSUBAR	r0x105E
                                           	JBSET	PFLAG,2
                                           	GOTO	_00977_DS_
                                           	MOVAI	0x78
                                           	RSUBAR	r0x105D
                                           _00977_DS_
                                           	JBSET	PFLAG,0
                                           	GOTO	_00855_DS_
                                           ;;genSkipc:3291: created from rifx:013B5EFC
                                           _00817_DS_
                                           ;	.line	985; "MC32F7361.c"	tmp_val = max_pwm_val - (adc_charging_val * max_pwm_val * 94 / 147) / tmp_bat_val;
                                           	MOVAR	_adc_charging_val
                                           	MOVRA	r0x105D
                                           	MOVAR	(_adc_charging_val + 1)
                                           	MOVRA	r0x105E
                                           	CLRR	r0x1061
                                           	CLRR	r0x1062
                                           	MOVAR	_max_pwm_val
                                           	MOVRA	STK06
                                           	MOVAR	(_max_pwm_val + 1)
                                           	MOVRA	STK05
                                           	MOVAR	(_max_pwm_val + 2)
                                           	MOVRA	STK04
                                           	MOVAR	(_max_pwm_val + 3)
                                           	MOVRA	STK03
                                           	MOVAR	r0x105D
                                           	MOVRA	STK02
                                           	MOVAR	r0x105E
                                           	MOVRA	STK01
                                           	MOVAI	0x00
                                           	MOVRA	STK00
                                           	MOVAI	0x00
                                           	CALL	__mullong
                                           	MOVRA	r0x1062
                                           	MOVAR	STK00
                                           	MOVRA	r0x1061
                                           	MOVAR	STK01
                                           	MOVRA	r0x105E
                                           	MOVAR	STK02
                                           	MOVRA	r0x105D
                                           	MOVAR	r0x105D
                                           	MOVRA	STK06
                                           	MOVAR	r0x105E
                                           	MOVRA	STK05
                                           	MOVAR	r0x1061
                                           	MOVRA	STK04
                                           	MOVAR	r0x1062
                                           	MOVRA	STK03
                                           	MOVAI	0x5e
                                           	MOVRA	STK02
                                           	MOVAI	0x00
                                           	MOVRA	STK01
                                           	MOVAI	0x00
                                           	MOVRA	STK00
                                           	MOVAI	0x00
                                           	CALL	__mullong
                                           	MOVRA	r0x1062
                                           	MOVAR	STK00
                                           	MOVRA	r0x1061
                                           	MOVAR	STK01
                                           	MOVRA	r0x105E
                                           	MOVAR	STK02
                                           	MOVRA	r0x105D
                                           	MOVAI	0x93
                                           	MOVRA	STK06
                                           	MOVAI	0x00
                                           	MOVRA	STK05
                                           	MOVAI	0x00
                                           	MOVRA	STK04
                                           	MOVAI	0x00
                                           	MOVRA	STK03
                                           	MOVAR	r0x105D
                                           	MOVRA	STK02
                                           	MOVAR	r0x105E
                                           	MOVRA	STK01
                                           	MOVAR	r0x1061
                                           	MOVRA	STK00
                                           	MOVAR	r0x1062
                                           	CALL	__divulong
                                           	MOVRA	r0x1062
                                           	MOVAR	STK00
                                           	MOVRA	r0x1061
                                           	MOVAR	STK01
                                           	MOVRA	r0x105E
                                           	MOVAR	STK02
                                           	MOVRA	r0x105D
                                           	MOVAR	_tmp_bat_val
                                           	MOVRA	r0x1063
                                           	MOVAR	(_tmp_bat_val + 1)
                                           	MOVRA	r0x1064
                                           	CLRR	r0x1065
                                           	CLRR	r0x1066
                                           	MOVAR	r0x1063
                                           	MOVRA	STK06
                                           	MOVAR	r0x1064
                                           	MOVRA	STK05
                                           	MOVAI	0x00
                                           	MOVRA	STK04
                                           	MOVAI	0x00
                                           	MOVRA	STK03
                                           	MOVAR	r0x105D
                                           	MOVRA	STK02
                                           	MOVAR	r0x105E
                                           	MOVRA	STK01
                                           	MOVAR	r0x1061
                                           	MOVRA	STK00
                                           	MOVAR	r0x1062
                                           	CALL	__divulong
                                           	MOVRA	r0x1062
                                           	MOVAR	STK00
                                           	MOVRA	r0x1061
                                           	MOVAR	STK01
                                           	MOVRA	r0x1066
                                           	MOVRA	r0x105E
                                           	MOVAR	STK02
                                           	MOVRA	r0x1065
                                           	MOVRA	r0x105D
                                           	MOVAR	_max_pwm_val
                                           	MOVRA	r0x1063
                                           	MOVAR	(_max_pwm_val + 1)
                                           	MOVRA	r0x1064
                                           ;;121	MOVAR	r0x105D
                                           ;;122	MOVAR	r0x105E
                                           	MOVAR	r0x1065
                                           	RSUBAR	r0x1063
                                           	MOVRA	_tmp_val
                                           	MOVAR	r0x1066
                                           	JBSET	PFLAG,0
                                           	INCAR	r0x1066
                                           	RSUBAR	r0x1064
                                           	MOVRA	(_tmp_val + 1)
                                           ;	.line	990; "MC32F7361.c"	if (tmp_val >= max_pwm_val)
                                           	MOVAR	_tmp_val
                                           	MOVRA	r0x105D
                                           	MOVAR	(_tmp_val + 1)
                                           	MOVRA	r0x105E
                                           	CLRR	r0x1061
                                           	CLRR	r0x1062
                                           	MOVAR	(_max_pwm_val + 3)
                                           	RSUBAR	r0x1062
                                           	JBSET	PFLAG,2
                                           	GOTO	_00978_DS_
                                           	MOVAR	(_max_pwm_val + 2)
                                           	RSUBAR	r0x1061
                                           	JBSET	PFLAG,2
                                           	GOTO	_00978_DS_
                                           	MOVAR	(_max_pwm_val + 1)
                                           	RSUBAR	r0x105E
                                           	JBSET	PFLAG,2
                                           	GOTO	_00978_DS_
                                           	MOVAR	_max_pwm_val
                                           	RSUBAR	r0x105D
                                           _00978_DS_
                                           	JBSET	PFLAG,0
                                           	GOTO	_00819_DS_
                                           ;;genSkipc:3291: created from rifx:013B5EFC
                                           ;	.line	993; "MC32F7361.c"	tmp_val = 0;
                                           	CLRR	_tmp_val
                                           	CLRR	(_tmp_val + 1)
                                           _00819_DS_
                                           ;	.line	997; "MC32F7361.c"	tmp_val_cnt++;
                                           	INCR	_tmp_val_cnt
                                           ;	.line	998; "MC32F7361.c"	tmp_val_cnt &= 0x07;
                                           	MOVAI	0x07
                                           	ANDRA	_tmp_val_cnt
                                           ;	.line	999; "MC32F7361.c"	tmp_val_l[tmp_val_cnt] = (tmp_val_l[tmp_val_cnt] + tmp_val) >> 1;
                                           	BCLR	PFLAG,0
                                           	RLAR	_tmp_val_cnt
                                           	MOVRA	r0x105D
                                           	MOVAR	r0x105D
                                           	ADDAI	(_tmp_val_l + 0)
                                           	MOVRA	r0x105D
                                           	MOVAI	high (_tmp_val_l + 0)
                                           	JBCLR	PFLAG,0
                                           	ADDAI	0x01
                                           	MOVRA	r0x105E
                                           	BCLR	PFLAG,0
                                           	RLAR	_tmp_val_cnt
                                           	MOVRA	r0x1061
                                           	MOVAR	r0x1061
                                           	ADDAI	(_tmp_val_l + 0)
                                           	MOVRA	r0x1061
                                           	MOVAI	high (_tmp_val_l + 0)
                                           	JBCLR	PFLAG,0
                                           	ADDAI	0x01
                                           	MOVRA	r0x1062
                                           	MOVAR	r0x1061
                                           	MOVRA	FSR0
                                           	MOVAR	r0x1062
                                           	MOVRA	FSR1
                                           	MOVAR	INDF2
                                           	MOVRA	r0x1063
                                           	INCR	FSR0
                                           	JBCLR	PFLAG,2
                                           	INCR	FSR1
                                           	MOVAR	INDF2
                                           	MOVRA	r0x1062
                                           	MOVRA	r0x1064
                                           	MOVAR	_tmp_val
                                           	ADDAR	r0x1063
                                           	MOVRA	r0x1061
                                           ;;123	MOVAR	r0x1064
                                           	MOVAR	(_tmp_val + 1)
                                           	JBCLR	PFLAG,0
                                           	JZAR	(_tmp_val + 1)
                                           	ADDRA	r0x1062
                                           ;;shiftRight_Left2ResultLit:5339: shCount=1, size=2, sign=0, same=0, offr=0
                                           	BCLR	PFLAG,0
                                           	RRAR	r0x1062
                                           	MOVRA	r0x1064
                                           	RRAR	r0x1061
                                           	MOVRA	r0x1063
                                           	MOVAR	r0x105D
                                           	MOVRA	FSR0
                                           	MOVAR	r0x105E
                                           	MOVRA	FSR1
                                           	MOVAR	r0x1063
                                           	MOVRA	INDF2
                                           	INCR	FSR0
                                           	JBCLR	PFLAG,2
                                           	INCR	FSR1
                                           	MOVAR	r0x1064
                                           	MOVRA	INDF2
                                           ;	.line	1000; "MC32F7361.c"	tmp_val = 0;
                                           	CLRR	_tmp_val
                                           	CLRR	(_tmp_val + 1)
                                           ;	.line	1001; "MC32F7361.c"	for (i = 0; i < 8; i++)
                                           	CLRR	_i
                                           ;;unsigned compare: left < lit(0x8=8), size=1
                                           _00858_DS_
                                           	MOVAI	0x08
                                           	RSUBAR	_i
                                           	JBCLR	PFLAG,0
                                           	GOTO	_00820_DS_
                                           ;;genSkipc:3291: created from rifx:013B5EFC
                                           ;	.line	1003; "MC32F7361.c"	tmp_val += tmp_val_l[i];
                                           	BCLR	PFLAG,0
                                           	RLAR	_i
                                           	MOVRA	r0x105D
                                           	MOVAR	r0x105D
                                           	ADDAI	(_tmp_val_l + 0)
                                           	MOVRA	r0x105D
                                           	MOVAI	high (_tmp_val_l + 0)
                                           	JBCLR	PFLAG,0
                                           	ADDAI	0x01
                                           	MOVRA	r0x105E
                                           	MOVAR	r0x105D
                                           	MOVRA	FSR0
                                           	MOVAR	r0x105E
                                           	MOVRA	FSR1
                                           	MOVAR	INDF2
                                           	MOVRA	r0x1061
                                           	INCR	FSR0
                                           	JBCLR	PFLAG,2
                                           	INCR	FSR1
                                           	MOVAR	INDF2
                                           	MOVRA	r0x1062
                                           	MOVAR	r0x1061
                                           	ADDRA	_tmp_val
                                           	MOVAR	r0x1062
                                           	JBCLR	PFLAG,0
                                           	JZAR	r0x1062
                                           	ADDRA	(_tmp_val + 1)
                                           ;	.line	1001; "MC32F7361.c"	for (i = 0; i < 8; i++)
                                           	INCR	_i
                                           	GOTO	_00858_DS_
                                           ;;shiftRight_Left2ResultLit:5339: shCount=1, size=2, sign=0, same=1, offr=0
                                           _00820_DS_
                                           ;	.line	1005; "MC32F7361.c"	tmp_val >>= 3;
                                           	BCLR	PFLAG,0
                                           	RRR	(_tmp_val + 1)
                                           	RRR	_tmp_val
                                           ;;shiftRight_Left2ResultLit:5339: shCount=1, size=2, sign=0, same=1, offr=0
                                           	BCLR	PFLAG,0
                                           	RRR	(_tmp_val + 1)
                                           	RRR	_tmp_val
                                           ;;shiftRight_Left2ResultLit:5339: shCount=1, size=2, sign=0, same=1, offr=0
                                           	BCLR	PFLAG,0
                                           	RRR	(_tmp_val + 1)
                                           	RRR	_tmp_val
                                           ;	.line	1014; "MC32F7361.c"	if (flag_is_adjust_pwm_time_comes)
                                           	JBSET	_flag3,6
                                           	GOTO	_00827_DS_
                                           ;	.line	1016; "MC32F7361.c"	flag_is_adjust_pwm_time_comes = 0;
                                           	BCLR	_flag3,6
                                           ;	.line	1018; "MC32F7361.c"	if (tmp_val > last_pwm_val)
                                           	MOVAR	(_tmp_val + 1)
                                           	RSUBAR	(_last_pwm_val + 1)
                                           	JBSET	PFLAG,2
                                           	GOTO	_00980_DS_
                                           	MOVAR	_tmp_val
                                           	RSUBAR	_last_pwm_val
                                           _00980_DS_
                                           	JBCLR	PFLAG,0
                                           	GOTO	_00824_DS_
                                           ;;genSkipc:3291: created from rifx:013B5EFC
                                           ;	.line	1023; "MC32F7361.c"	last_pwm_val++;
                                           	INCR	_last_pwm_val
                                           	JBCLR	PFLAG,2
                                           	INCR	(_last_pwm_val + 1)
                                           	GOTO	_00827_DS_
                                           _00824_DS_
                                           ;	.line	1027; "MC32F7361.c"	else if (tmp_val < last_pwm_val)
                                           	MOVAR	(_last_pwm_val + 1)
                                           	RSUBAR	(_tmp_val + 1)
                                           	JBSET	PFLAG,2
                                           	GOTO	_00981_DS_
                                           	MOVAR	_last_pwm_val
                                           	RSUBAR	_tmp_val
                                           _00981_DS_
                                           	JBCLR	PFLAG,0
                                           	GOTO	_00827_DS_
                                           ;;genSkipc:3291: created from rifx:013B5EFC
                                           ;	.line	1032; "MC32F7361.c"	last_pwm_val--;
                                           	MOVAI	0xff
                                           	ADDRA	_last_pwm_val
                                           	JBSET	PFLAG,0
                                           	DECR	(_last_pwm_val + 1)
                                           _00827_DS_
                                           ;	.line	1038; "MC32F7361.c"	T2DATA = last_pwm_val;
                                           	MOVAR	_last_pwm_val
                                           	MOVRA	_T2DATA
                                           	GOTO	_00838_DS_
                                           _00837_DS_
                                           ;	.line	1043; "MC32F7361.c"	if (FLAG_DURING_CHARGING_BAT_IS_NULL)
                                           	JBSET	_flag1,7
                                           	GOTO	_00838_DS_
                                           ;	.line	1046; "MC32F7361.c"	LED_RED_ON();
                                           	BCLR	_IOP1bits,4
                                           ;	.line	1047; "MC32F7361.c"	delay_ms(200);
                                           	MOVAI	0xc8
                                           	MOVRA	STK00
                                           	MOVAI	0x00
                                           	CALL	_delay_ms
                                           ;	.line	1048; "MC32F7361.c"	LED_RED_OFF();
                                           	BSET	_IOP1bits,4
                                           ;	.line	1049; "MC32F7361.c"	delay_ms(200);
                                           	MOVAI	0xc8
                                           	MOVRA	STK00
                                           	MOVAI	0x00
                                           	CALL	_delay_ms
                                           _00838_DS_
                                           ;	.line	1053; "MC32F7361.c"	if (flag_is_low_battery)
                                           	JBSET	_flag2,2
                                           	GOTO	_00848_DS_
                                           ;	.line	1057; "MC32F7361.c"	LED_RED_ON();
                                           	BCLR	_IOP1bits,4
                                           ;	.line	1058; "MC32F7361.c"	for (i = 0; i < 20; i++)
                                           	CLRR	_i
                                           ;;unsigned compare: left < lit(0x14=20), size=1
                                           _00861_DS_
                                           	MOVAI	0x14
                                           	RSUBAR	_i
                                           	JBCLR	PFLAG,0
                                           	GOTO	_00843_DS_
                                           ;;genSkipc:3291: created from rifx:013B5EFC
                                           ;	.line	1060; "MC32F7361.c"	key_event_handle();
                                           	CALL	_key_event_handle
                                           ;	.line	1061; "MC32F7361.c"	delay_ms(10);
                                           	MOVAI	0x0a
                                           	MOVRA	STK00
                                           	MOVAI	0x00
                                           	CALL	_delay_ms
                                           ;	.line	1058; "MC32F7361.c"	for (i = 0; i < 20; i++)
                                           	INCR	_i
                                           	GOTO	_00861_DS_
                                           _00843_DS_
                                           ;	.line	1065; "MC32F7361.c"	LED_RED_OFF();
                                           	BSET	_IOP1bits,4
                                           ;	.line	1066; "MC32F7361.c"	for (i = 0; i < 20; i++)
                                           	CLRR	_i
                                           ;;unsigned compare: left < lit(0x14=20), size=1
                                           _00864_DS_
                                           	MOVAI	0x14
                                           	RSUBAR	_i
                                           	JBCLR	PFLAG,0
                                           	GOTO	_00848_DS_
                                           ;;genSkipc:3291: created from rifx:013B5EFC
                                           ;	.line	1068; "MC32F7361.c"	key_event_handle();
                                           	CALL	_key_event_handle
                                           ;	.line	1069; "MC32F7361.c"	delay_ms(10);
                                           	MOVAI	0x0a
                                           	MOVRA	STK00
                                           	MOVAI	0x00
                                           	CALL	_delay_ms
                                           ;	.line	1066; "MC32F7361.c"	for (i = 0; i < 20; i++)
                                           	INCR	_i
                                           	GOTO	_00864_DS_
                                           _00848_DS_
                                           ;	.line	1073; "MC32F7361.c"	low_power_scan_handle(); // 
                                           	CALL	_low_power_scan_handle
                                           ;	.line	1078; "MC32F7361.c"	__endasm;
                                           	;
                                           	CLRWDT;
                                           	
                                           	GOTO	_00850_DS_
                                           ;	.line	1083; "MC32F7361.c"	}
                                           	RETURN	
                                           ; exit point of _main
                                           
                                           ;***
                                           ;  pBlock Stats: dbName = C
                                           ;***
                                           ;entry:  _low_power_scan_handle	;Function start
                                           ; 2 exit points
                                           ;has an exit
                                           ;functions called:
                                           ;   _CLR_RAM
                                           ;   _adc_config
                                           ;   _adc_sel_pin
                                           ;   _adc_get_val_once
                                           ;   _Sys_Init
                                           ;   _CLR_RAM
                                           ;   _adc_config
                                           ;   _adc_sel_pin
                                           ;   _adc_get_val_once
                                           ;   _Sys_Init
                                           ;2 compiler assigned registers:
                                           ;   r0x1055
                                           ;   STK00
                                           ;; Starting pCode block
                                           _low_power_scan_handle	;Function start
                                           ; 2 exit points
                                           ;	.line	753; "MC32F7361.c"	if (FLAG_DURING_CHARGING_BAT_IS_NULL || // 
                                           	JBCLR	_flag1,7
                                           	GOTO	_00748_DS_
                                           ;	.line	754; "MC32F7361.c"	FLAG_IS_DEVICE_OPEN ||              // 
                                           	JBCLR	_flag1,0
                                           	GOTO	_00748_DS_
                                           ;	.line	755; "MC32F7361.c"	FLAG_IS_IN_CHARGING ||              // PWM
                                           	JBCLR	_flag1,2
                                           	GOTO	_00748_DS_
                                           ;	.line	756; "MC32F7361.c"	(1 == P11D))                        //  / ()
                                           	CLRR	r0x1055
                                           	JBCLR	_IOP1bits,1
                                           	INCR	r0x1055
                                           	MOVAR	r0x1055
                                           	XORAI	0x01
                                           	JBSET	PFLAG,2
                                           	GOTO	_00753_DS_
                                           _00748_DS_
                                           ;	.line	758; "MC32F7361.c"	return;
                                           	GOTO	_00763_DS_
                                           _00753_DS_
                                           ;	.line	762; "MC32F7361.c"	GIE = 0;  // 
                                           	BCLR	_MCRbits,7
                                           ;	.line	763; "MC32F7361.c"	T0EN = 0; // PWM
                                           	BCLR	_T0CRbits,7
                                           ;	.line	764; "MC32F7361.c"	T1EN = 0;
                                           	BCLR	_T1CRbits,7
                                           ;	.line	765; "MC32F7361.c"	T2EN = 0;
                                           	BCLR	_T2CRbits,7
                                           ;	.line	766; "MC32F7361.c"	T3EN = 0;
                                           	BCLR	_T3CRbits,7
                                           ;	.line	768; "MC32F7361.c"	PWM0EC = 0;
                                           	BCLR	_T0CRbits,6
                                           ;	.line	769; "MC32F7361.c"	PWM1EC = 0;
                                           	BCLR	_T1CRbits,6
                                           ;	.line	770; "MC32F7361.c"	PWM2EC = 0;
                                           	BCLR	_T2CRbits,6
                                           ;	.line	771; "MC32F7361.c"	T2DATA = 0;
                                           	CLRR	_T2DATA
                                           ;	.line	772; "MC32F7361.c"	ADEN = 0; // ad
                                           	BCLR	_ADCR0bits,0
                                           ;	.line	774; "MC32F7361.c"	LED_RED_OFF();
                                           	BSET	_IOP1bits,4
                                           ;	.line	775; "MC32F7361.c"	LED_GREEN_OFF();
                                           	BSET	_IOP0bits,4
                                           ;	.line	777; "MC32F7361.c"	P11PD = 1;
                                           	BSET	_PDP1bits,1
                                           ;	.line	778; "MC32F7361.c"	P11OE = 0; // 
                                           	BCLR	_OEP1bits,1
                                           ;	.line	781; "MC32F7361.c"	P00PD = 1;
                                           	BSET	_PDP0bits,0
                                           ;	.line	782; "MC32F7361.c"	P00OE = 0;
                                           	BCLR	_OEP0bits,0
                                           ;	.line	784; "MC32F7361.c"	HFEN = 0; // 
                                           	BCLR	_OSCMRbits,0
                                           ;	.line	785; "MC32F7361.c"	LFEN = 1;
                                           	BSET	_OSCMRbits,1
                                           ;	.line	788; "MC32F7361.c"	Nop();
                                           	nop	
                                           ;	.line	789; "MC32F7361.c"	Nop();
                                           	nop	
                                           ;	.line	790; "MC32F7361.c"	Stop();
                                           	stop	
                                           ;	.line	791; "MC32F7361.c"	Nop();
                                           	nop	
                                           ;	.line	792; "MC32F7361.c"	Nop();
                                           	nop	
                                           ;	.line	794; "MC32F7361.c"	HFEN = 1; // 
                                           	BSET	_OSCMRbits,0
                                           ;	.line	796; "MC32F7361.c"	CLR_RAM();
                                           	CALL	_CLR_RAM
                                           ;	.line	798; "MC32F7361.c"	adc_config();
                                           	CALL	_adc_config
                                           ;	.line	799; "MC32F7361.c"	adc_sel_pin(ADC_PIN_P00_AN0);
                                           	MOVAI	0x01
                                           	CALL	_adc_sel_pin
                                           ;	.line	800; "MC32F7361.c"	adc_val = adc_get_val_once();
                                           	CALL	_adc_get_val_once
                                           	MOVRA	(_adc_val + 1)
                                           	MOVAR	STK00
                                           	MOVRA	_adc_val
                                           ;;unsigned compare: left < lit(0x800=2048), size=2
                                           ;	.line	802; "MC32F7361.c"	if (adc_val < ADCDETECT_CHARING_THRESHOLD && P11D == 0)
                                           	MOVAI	0x08
                                           	RSUBAR	(_adc_val + 1)
                                           	JBSET	PFLAG,2
                                           	GOTO	_00785_DS_
                                           	MOVAI	0x00
                                           	RSUBAR	_adc_val
                                           _00785_DS_
                                           	JBCLR	PFLAG,0
                                           	GOTO	_00761_DS_
                                           ;;genSkipc:3291: created from rifx:013B5EFC
                                           	JBSET	_IOP1bits,1
                                           	GOTO	_00753_DS_
                                           _00761_DS_
                                           ;	.line	809; "MC32F7361.c"	Sys_Init();
                                           	CALL	_Sys_Init
                                           _00763_DS_
                                           ;	.line	810; "MC32F7361.c"	}
                                           	RETURN	
                                           ; exit point of _low_power_scan_handle
                                           
                                           ;***
                                           ;  pBlock Stats: dbName = C
                                           ;***
                                           ;entry:  _shutdown_scan_handle	;Function start
                                           ; 2 exit points
                                           ;has an exit
                                           ;; Starting pCode block
                                           _shutdown_scan_handle	;Function start
                                           ; 2 exit points
                                           ;	.line	726; "MC32F7361.c"	if (FLAG_IS_DEVICE_OPEN)
                                           	JBSET	_flag1,0
                                           	GOTO	_00731_DS_
                                           ;;unsigned compare: left < lit(0xDBBA0=900000), size=4
                                           ;	.line	729; "MC32F7361.c"	if (shut_down_ms_cnt >= ((u32)15 * 60 * 1000))
                                           	MOVAI	0x00
                                           	RSUBAR	(_shut_down_ms_cnt + 3)
                                           	JBSET	PFLAG,2
                                           	GOTO	_00743_DS_
                                           	MOVAI	0x0d
                                           	RSUBAR	(_shut_down_ms_cnt + 2)
                                           	JBSET	PFLAG,2
                                           	GOTO	_00743_DS_
                                           	MOVAI	0xbb
                                           	RSUBAR	(_shut_down_ms_cnt + 1)
                                           	JBSET	PFLAG,2
                                           	GOTO	_00743_DS_
                                           	MOVAI	0xa0
                                           	RSUBAR	_shut_down_ms_cnt
                                           _00743_DS_
                                           	JBSET	PFLAG,0
                                           	GOTO	_00733_DS_
                                           ;;genSkipc:3291: created from rifx:013B5EFC
                                           ;	.line	732; "MC32F7361.c"	LED_RED_OFF();
                                           	BSET	_IOP1bits,4
                                           ;	.line	733; "MC32F7361.c"	LED_GREEN_OFF();
                                           	BSET	_IOP0bits,4
                                           ;	.line	734; "MC32F7361.c"	HEATING_OFF(); // 
                                           	BCLR	_IOP1bits,2
                                           ;	.line	738; "MC32F7361.c"	PWM0EC = 0;
                                           	BCLR	_T0CRbits,6
                                           ;	.line	739; "MC32F7361.c"	PWM1EC = 0;
                                           	BCLR	_T1CRbits,6
                                           ;	.line	740; "MC32F7361.c"	FLAG_IS_DEVICE_OPEN = 0;
                                           	BCLR	_flag1,0
                                           	GOTO	_00733_DS_
                                           _00731_DS_
                                           ;	.line	746; "MC32F7361.c"	shut_down_ms_cnt = 0;
                                           	CLRR	_shut_down_ms_cnt
                                           	CLRR	(_shut_down_ms_cnt + 1)
                                           	CLRR	(_shut_down_ms_cnt + 2)
                                           	CLRR	(_shut_down_ms_cnt + 3)
                                           _00733_DS_
                                           ;	.line	748; "MC32F7361.c"	}
                                           	RETURN	
                                           ; exit point of _shutdown_scan_handle
                                           
                                           ;***
                                           ;  pBlock Stats: dbName = C
                                           ;***
                                           ;entry:  _turn_dir_scan_handle	;Function start
                                           ; 2 exit points
                                           ;has an exit
                                           ;functions called:
                                           ;   _delay_ms
                                           ;   _delay_ms
                                           ;   _delay_ms
                                           ;   _delay_ms
                                           ;1 compiler assigned register :
                                           ;   STK00
                                           ;; Starting pCode block
                                           _turn_dir_scan_handle	;Function start
                                           ; 2 exit points
                                           ;	.line	694; "MC32F7361.c"	if (FLAG_IS_DEVICE_OPEN)
                                           	JBSET	_flag1,0
                                           	GOTO	_00698_DS_
                                           ;;unsigned compare: left < lit(0xEA60=60000), size=4
                                           ;	.line	700; "MC32F7361.c"	if (turn_dir_ms_cnt >= ((u32)60 * 1000))
                                           	MOVAI	0x00
                                           	RSUBAR	(_turn_dir_ms_cnt + 3)
                                           	JBSET	PFLAG,2
                                           	GOTO	_00714_DS_
                                           	MOVAI	0x00
                                           	RSUBAR	(_turn_dir_ms_cnt + 2)
                                           	JBSET	PFLAG,2
                                           	GOTO	_00714_DS_
                                           	MOVAI	0xea
                                           	RSUBAR	(_turn_dir_ms_cnt + 1)
                                           	JBSET	PFLAG,2
                                           	GOTO	_00714_DS_
                                           	MOVAI	0x60
                                           	RSUBAR	_turn_dir_ms_cnt
                                           _00714_DS_
                                           	JBSET	PFLAG,0
                                           	GOTO	_00700_DS_
                                           ;;genSkipc:3291: created from rifx:013B5EFC
                                           ;	.line	702; "MC32F7361.c"	if (PWM1EC) // PWM1 
                                           	JBSET	_T1CRbits,6
                                           	GOTO	_00693_DS_
                                           ;	.line	704; "MC32F7361.c"	PWM1EC = 0;
                                           	BCLR	_T1CRbits,6
                                           ;	.line	705; "MC32F7361.c"	delay_ms(1000); // 
                                           	MOVAI	0xe8
                                           	MOVRA	STK00
                                           	MOVAI	0x03
                                           	CALL	_delay_ms
                                           ;	.line	706; "MC32F7361.c"	PWM0EC = 1;
                                           	BSET	_T0CRbits,6
                                           	GOTO	_00694_DS_
                                           _00693_DS_
                                           ;	.line	710; "MC32F7361.c"	PWM0EC = 0;     //
                                           	BCLR	_T0CRbits,6
                                           ;	.line	711; "MC32F7361.c"	delay_ms(1000); // 
                                           	MOVAI	0xe8
                                           	MOVRA	STK00
                                           	MOVAI	0x03
                                           	CALL	_delay_ms
                                           ;	.line	712; "MC32F7361.c"	PWM1EC = 1;     //
                                           	BSET	_T1CRbits,6
                                           _00694_DS_
                                           ;	.line	714; "MC32F7361.c"	turn_dir_ms_cnt = 0;
                                           	CLRR	_turn_dir_ms_cnt
                                           	CLRR	(_turn_dir_ms_cnt + 1)
                                           	CLRR	(_turn_dir_ms_cnt + 2)
                                           	CLRR	(_turn_dir_ms_cnt + 3)
                                           	GOTO	_00700_DS_
                                           _00698_DS_
                                           ;	.line	719; "MC32F7361.c"	turn_dir_ms_cnt = 0; // 
                                           	CLRR	_turn_dir_ms_cnt
                                           	CLRR	(_turn_dir_ms_cnt + 1)
                                           	CLRR	(_turn_dir_ms_cnt + 2)
                                           	CLRR	(_turn_dir_ms_cnt + 3)
                                           _00700_DS_
                                           ;	.line	721; "MC32F7361.c"	}
                                           	RETURN	
                                           ; exit point of _turn_dir_scan_handle
                                           
                                           ;***
                                           ;  pBlock Stats: dbName = C
                                           ;***
                                           ;entry:  _adc_scan_handle	;Function start
                                           ; 2 exit points
                                           ;has an exit
                                           ;functions called:
                                           ;   _adc_sel_pin
                                           ;   _adc_get_val
                                           ;   _key_event_handle
                                           ;   _adc_sel_pin
                                           ;   _adc_get_val
                                           ;   _key_event_handle
                                           ;   _adc_sel_pin
                                           ;   _adc_get_val
                                           ;   _key_event_handle
                                           ;   _adc_sel_pin
                                           ;   _adc_get_val
                                           ;   _key_event_handle
                                           ;1 compiler assigned register :
                                           ;   STK00
                                           ;; Starting pCode block
                                           _adc_scan_handle	;Function start
                                           ; 2 exit points
                                           ;	.line	449; "MC32F7361.c"	volatile u8 cnt = 0;             // /
                                           	CLRR	_adc_scan_handle_cnt_65536_77
                                           ;	.line	450; "MC32F7361.c"	volatile u8 need_charge_cnt = 0; // 
                                           	CLRR	_adc_scan_handle_need_charge_cnt_65536_77
                                           ;	.line	452; "MC32F7361.c"	adc_bat_val = 0;
                                           	CLRR	_adc_bat_val
                                           	CLRR	(_adc_bat_val + 1)
                                           	CLRR	(_adc_bat_val + 2)
                                           	CLRR	(_adc_bat_val + 3)
                                           ;	.line	453; "MC32F7361.c"	adc_charging_val = 0;
                                           	CLRR	_adc_charging_val
                                           	CLRR	(_adc_charging_val + 1)
                                           ;	.line	455; "MC32F7361.c"	adc_sel_pin(ADC_PIN_P02_AN1); // 
                                           	MOVAI	0x02
                                           	CALL	_adc_sel_pin
                                           ;	.line	456; "MC32F7361.c"	for (i = 0; i < 10; i++)      //  // 55ms4.8ms
                                           	CLRR	_i
                                           ;;unsigned compare: left < lit(0xA=10), size=1
                                           _00524_DS_
                                           	MOVAI	0x0a
                                           	RSUBAR	_i
                                           	JBCLR	PFLAG,0
                                           	GOTO	_00483_DS_
                                           ;;genSkipc:3291: created from rifx:013B5EFC
                                           ;	.line	458; "MC32F7361.c"	adc_val = adc_get_val();
                                           	CALL	_adc_get_val
                                           	MOVRA	(_adc_val + 1)
                                           	MOVAR	STK00
                                           	MOVRA	_adc_val
                                           ;	.line	460; "MC32F7361.c"	if (i == 0)
                                           	MOVAI	0x00
                                           	ORAR	_i
                                           	JBSET	PFLAG,2
                                           	GOTO	_00419_DS_
                                           ;	.line	462; "MC32F7361.c"	adc_bat_val = adc_val;
                                           	MOVAR	_adc_val
                                           	MOVRA	_adc_bat_val
                                           	MOVAR	(_adc_val + 1)
                                           	MOVRA	(_adc_bat_val + 1)
                                           	CLRR	(_adc_bat_val + 2)
                                           	CLRR	(_adc_bat_val + 3)
                                           _00419_DS_
                                           ;	.line	465; "MC32F7361.c"	if (FLAG_IS_IN_CHARGING)
                                           	JBSET	_flag1,2
                                           	GOTO	_00481_DS_
                                           ;;unsigned compare: left < lit(0xF52=3922), size=2
                                           ;	.line	468; "MC32F7361.c"	if (adc_val >= ADCDETECT_BAT_FULL + ADCDETECT_BAT_NULL_EX)
                                           	MOVAI	0x0f
                                           	RSUBAR	(_adc_val + 1)
                                           	JBSET	PFLAG,2
                                           	GOTO	_00672_DS_
                                           	MOVAI	0x52
                                           	RSUBAR	_adc_val
                                           _00672_DS_
                                           	JBSET	PFLAG,0
                                           	GOTO	_00421_DS_
                                           ;;genSkipc:3291: created from rifx:013B5EFC
                                           ;	.line	471; "MC32F7361.c"	T2DATA = 0;
                                           	CLRR	_T2DATA
                                           ;	.line	472; "MC32F7361.c"	over_charging_cnt++;
                                           	INCR	_over_charging_cnt
                                           ;;unsigned compare: left < lit(0xE3A=3642), size=2
                                           _00421_DS_
                                           ;	.line	475; "MC32F7361.c"	if (adc_val >= ADCDETECT_BAT_FULL) // 
                                           	MOVAI	0x0e
                                           	RSUBAR	(_adc_val + 1)
                                           	JBSET	PFLAG,2
                                           	GOTO	_00673_DS_
                                           	MOVAI	0x3a
                                           	RSUBAR	_adc_val
                                           _00673_DS_
                                           	JBSET	PFLAG,0
                                           	GOTO	_00425_DS_
                                           ;;genSkipc:3291: created from rifx:013B5EFC
                                           ;	.line	477; "MC32F7361.c"	cnt++;
                                           	INCR	_adc_scan_handle_cnt_65536_77
                                           	GOTO	_00426_DS_
                                           ;;unsigned compare: left < lit(0xD90=3472), size=2
                                           _00425_DS_
                                           ;	.line	479; "MC32F7361.c"	else if (adc_val < ADCDETECT_BAT_WILL_FULL) // 
                                           	MOVAI	0x0d
                                           	RSUBAR	(_adc_val + 1)
                                           	JBSET	PFLAG,2
                                           	GOTO	_00674_DS_
                                           	MOVAI	0x90
                                           	RSUBAR	_adc_val
                                           _00674_DS_
                                           	JBCLR	PFLAG,0
                                           	GOTO	_00426_DS_
                                           ;;genSkipc:3291: created from rifx:013B5EFC
                                           ;	.line	481; "MC32F7361.c"	need_charge_cnt++;
                                           	INCR	_adc_scan_handle_need_charge_cnt_65536_77
                                           _00426_DS_
                                           ;	.line	484; "MC32F7361.c"	if (flag_bat_is_empty)
                                           	JBSET	_flag3,7
                                           	GOTO	_00449_DS_
                                           ;	.line	489; "MC32F7361.c"	LED_RED_OFF(); // 
                                           	BSET	_IOP1bits,4
                                           ;	.line	490; "MC32F7361.c"	PWM2EC = 0;    // pwmPWM
                                           	BCLR	_T2CRbits,6
                                           ;	.line	491; "MC32F7361.c"	T2DATA = 0;
                                           	CLRR	_T2DATA
                                           ;	.line	492; "MC32F7361.c"	FLAG_BAT_IS_NEED_CHARGE = 0;
                                           	BCLR	_flag1,4
                                           ;	.line	493; "MC32F7361.c"	FLAG_DURING_CHARGING_BAT_IS_NULL = 1; // 
                                           	BSET	_flag1,7
                                           ;	.line	495; "MC32F7361.c"	break;
                                           	GOTO	_00483_DS_
                                           ;;unsigned compare: left < lit(0x8=8), size=1
                                           _00449_DS_
                                           ;	.line	497; "MC32F7361.c"	else if (cnt >= 8 || over_charging_cnt >= 8)
                                           	MOVAI	0x08
                                           	RSUBAR	_adc_scan_handle_cnt_65536_77
                                           	JBCLR	PFLAG,0
                                           	GOTO	_00444_DS_
                                           ;;genSkipc:3291: created from rifx:013B5EFC
                                           ;;unsigned compare: left < lit(0x8=8), size=1
                                           	MOVAI	0x08
                                           	RSUBAR	_over_charging_cnt
                                           	JBSET	PFLAG,0
                                           	GOTO	_00445_DS_
                                           ;;genSkipc:3291: created from rifx:013B5EFC
                                           _00444_DS_
                                           ;	.line	500; "MC32F7361.c"	full_charge_cnt++;
                                           	INCR	_full_charge_cnt
                                           ;;unsigned compare: left < lit(0x64=100), size=1
                                           ;	.line	501; "MC32F7361.c"	if (full_charge_cnt >= 100 || over_charging_cnt >= 8) // 5.5s
                                           	MOVAI	0x64
                                           	RSUBAR	_full_charge_cnt
                                           	JBCLR	PFLAG,0
                                           	GOTO	_00436_DS_
                                           ;;genSkipc:3291: created from rifx:013B5EFC
                                           ;;unsigned compare: left < lit(0x8=8), size=1
                                           	MOVAI	0x08
                                           	RSUBAR	_over_charging_cnt
                                           	JBSET	PFLAG,0
                                           	GOTO	_00482_DS_
                                           ;;genSkipc:3291: created from rifx:013B5EFC
                                           _00436_DS_
                                           ;	.line	503; "MC32F7361.c"	full_charge_cnt = 0; //
                                           	CLRR	_full_charge_cnt
                                           ;	.line	505; "MC32F7361.c"	PWM2EC = 0; // pwm
                                           	BCLR	_T2CRbits,6
                                           ;	.line	506; "MC32F7361.c"	T2DATA = 0;
                                           	CLRR	_T2DATA
                                           ;	.line	508; "MC32F7361.c"	FLAG_BAT_IS_NEED_CHARGE = 0;
                                           	BCLR	_flag1,4
                                           ;	.line	509; "MC32F7361.c"	FLAG_BAT_IS_FULL = 1;
                                           	BSET	_flag1,5
                                           ;	.line	511; "MC32F7361.c"	LED_RED_OFF();  // 
                                           	BSET	_IOP1bits,4
                                           ;	.line	512; "MC32F7361.c"	LED_GREEN_ON(); // 
                                           	BCLR	_IOP0bits,4
                                           ;	.line	513; "MC32F7361.c"	break;
                                           	GOTO	_00483_DS_
                                           ;;unsigned compare: left < lit(0x8=8), size=1
                                           _00445_DS_
                                           ;	.line	516; "MC32F7361.c"	else if (need_charge_cnt >= 8)
                                           	MOVAI	0x08
                                           	RSUBAR	_adc_scan_handle_need_charge_cnt_65536_77
                                           	JBSET	PFLAG,0
                                           	GOTO	_00482_DS_
                                           ;;genSkipc:3291: created from rifx:013B5EFC
                                           ;	.line	521; "MC32F7361.c"	LED_GREEN_OFF();
                                           	BSET	_IOP0bits,4
                                           ;	.line	522; "MC32F7361.c"	FLAG_BAT_IS_NEED_CHARGE = 1;
                                           	BSET	_flag1,4
                                           ;	.line	523; "MC32F7361.c"	FLAG_BAT_IS_FULL = 0;
                                           	BCLR	_flag1,5
                                           ;	.line	524; "MC32F7361.c"	break;
                                           	GOTO	_00483_DS_
                                           _00481_DS_
                                           ;	.line	530; "MC32F7361.c"	if (flag_bat_is_empty == 0 && adc_val <= ADCDETECT_BAT_FULL - ((ADCDETECT_BAT_FULL - ADCDETECT_BAT_WILL_FULL) / 2))
                                           	JBCLR	_flag3,7
                                           	GOTO	_00452_DS_
                                           ;;swapping arguments (AOP_TYPEs 1/3)
                                           ;;unsigned compare: left >= lit(0xDE6=3558), size=2
                                           	MOVAI	0x0d
                                           	RSUBAR	(_adc_val + 1)
                                           	JBSET	PFLAG,2
                                           	GOTO	_00680_DS_
                                           	MOVAI	0xe6
                                           	RSUBAR	_adc_val
                                           _00680_DS_
                                           	JBCLR	PFLAG,0
                                           	GOTO	_00452_DS_
                                           ;;genSkipc:3291: created from rifx:013B5EFC
                                           ;	.line	532; "MC32F7361.c"	cnt++;
                                           	INCR	_adc_scan_handle_cnt_65536_77
                                           ;;unsigned compare: left < lit(0x8=8), size=1
                                           _00452_DS_
                                           ;	.line	535; "MC32F7361.c"	if (cnt >= 8)
                                           	MOVAI	0x08
                                           	RSUBAR	_adc_scan_handle_cnt_65536_77
                                           	JBSET	PFLAG,0
                                           	GOTO	_00455_DS_
                                           ;;genSkipc:3291: created from rifx:013B5EFC
                                           ;	.line	538; "MC32F7361.c"	FLAG_BAT_IS_NEED_CHARGE = 1;
                                           	BSET	_flag1,4
                                           ;	.line	539; "MC32F7361.c"	FLAG_BAT_IS_FULL = 0;
                                           	BCLR	_flag1,5
                                           ;	.line	540; "MC32F7361.c"	break;
                                           	GOTO	_00483_DS_
                                           _00455_DS_
                                           ;	.line	544; "MC32F7361.c"	flag_bat_is_empty == 0 &&  /*  */
                                           	JBCLR	_flag3,7
                                           	GOTO	_00462_DS_
                                           ;	.line	545; "MC32F7361.c"	FLAG_IS_DEVICE_OPEN &&     /*  */
                                           	JBSET	_flag1,0
                                           	GOTO	_00462_DS_
                                           ;;unsigned compare: left < lit(0xA93=2707), size=2
                                           ;	.line	547; "MC32F7361.c"	)
                                           	MOVAI	0x0a
                                           	RSUBAR	(_adc_val + 1)
                                           	JBSET	PFLAG,2
                                           	GOTO	_00682_DS_
                                           	MOVAI	0x93
                                           	RSUBAR	_adc_val
                                           _00682_DS_
                                           	JBCLR	PFLAG,0
                                           	GOTO	_00462_DS_
                                           ;;genSkipc:3291: created from rifx:013B5EFC
                                           ;	.line	549; "MC32F7361.c"	flag_tim_scan_maybe_shut_down = 1;
                                           	BSET	_flag3,3
                                           	GOTO	_00463_DS_
                                           _00462_DS_
                                           ;	.line	551; "MC32F7361.c"	else if (flag_bat_is_empty == 0 &&
                                           	JBCLR	_flag3,7
                                           	GOTO	_00457_DS_
                                           ;	.line	552; "MC32F7361.c"	FLAG_IS_DEVICE_OPEN &&
                                           	JBSET	_flag1,0
                                           	GOTO	_00457_DS_
                                           ;;unsigned compare: left < lit(0xB15=2837), size=2
                                           ;	.line	553; "MC32F7361.c"	adc_val < LOW_BATTERY_AD_VAL)
                                           	MOVAI	0x0b
                                           	RSUBAR	(_adc_val + 1)
                                           	JBSET	PFLAG,2
                                           	GOTO	_00683_DS_
                                           	MOVAI	0x15
                                           	RSUBAR	_adc_val
                                           _00683_DS_
                                           	JBCLR	PFLAG,0
                                           	GOTO	_00457_DS_
                                           ;;genSkipc:3291: created from rifx:013B5EFC
                                           ;	.line	556; "MC32F7361.c"	flag_maybe_low_battery = 1;
                                           	BSET	_flag3,2
                                           ;	.line	557; "MC32F7361.c"	flag_tim_scan_maybe_shut_down = 0;
                                           	BCLR	_flag3,3
                                           	GOTO	_00463_DS_
                                           _00457_DS_
                                           ;	.line	561; "MC32F7361.c"	flag_maybe_low_battery = 0;
                                           	BCLR	_flag3,2
                                           ;	.line	562; "MC32F7361.c"	flag_tim_scan_maybe_shut_down = 0;
                                           	BCLR	_flag3,3
                                           _00463_DS_
                                           ;	.line	566; "MC32F7361.c"	if (flag_is_needed_shut_down && FLAG_IS_DEVICE_OPEN)
                                           	JBSET	_flag3,4
                                           	GOTO	_00482_DS_
                                           	JBSET	_flag1,0
                                           	GOTO	_00482_DS_
                                           ;	.line	568; "MC32F7361.c"	flag_is_needed_shut_down = 0;
                                           	BCLR	_flag3,4
                                           ;	.line	572; "MC32F7361.c"	if (flag_is_low_battery)
                                           	JBSET	_flag2,2
                                           	GOTO	_00468_DS_
                                           ;	.line	575; "MC32F7361.c"	flag_is_low_battery = 0;
                                           	BCLR	_flag2,2
                                           _00468_DS_
                                           ;	.line	579; "MC32F7361.c"	LED_GREEN_OFF();
                                           	BSET	_IOP0bits,4
                                           ;	.line	580; "MC32F7361.c"	LED_RED_OFF();
                                           	BSET	_IOP1bits,4
                                           ;	.line	581; "MC32F7361.c"	HEATING_OFF(); // 
                                           	BCLR	_IOP1bits,2
                                           ;	.line	582; "MC32F7361.c"	FLAG_IS_DEVICE_OPEN = 0;
                                           	BCLR	_flag1,0
                                           ;	.line	588; "MC32F7361.c"	PWM0EC = 0;
                                           	BCLR	_T0CRbits,6
                                           ;	.line	589; "MC32F7361.c"	PWM1EC = 0;
                                           	BCLR	_T1CRbits,6
                                           _00482_DS_
                                           ;	.line	593; "MC32F7361.c"	key_event_handle();
                                           	CALL	_key_event_handle
                                           ;	.line	456; "MC32F7361.c"	for (i = 0; i < 10; i++)      //  // 55ms4.8ms
                                           	INCR	_i
                                           	GOTO	_00524_DS_
                                           _00483_DS_
                                           ;	.line	596; "MC32F7361.c"	cnt = 0;
                                           	CLRR	_adc_scan_handle_cnt_65536_77
                                           ;	.line	597; "MC32F7361.c"	adc_sel_pin(ADC_PIN_P00_AN0); // ( == USB-C / 2)
                                           	MOVAI	0x01
                                           	CALL	_adc_sel_pin
                                           ;	.line	598; "MC32F7361.c"	for (i = 0; i < 10; i++)
                                           	CLRR	_i
                                           ;;unsigned compare: left < lit(0xA=10), size=1
                                           _00527_DS_
                                           	MOVAI	0x0a
                                           	RSUBAR	_i
                                           	JBCLR	PFLAG,0
                                           	GOTO	_00529_DS_
                                           ;;genSkipc:3291: created from rifx:013B5EFC
                                           ;	.line	600; "MC32F7361.c"	adc_val = adc_get_val();
                                           	CALL	_adc_get_val
                                           	MOVRA	(_adc_val + 1)
                                           	MOVAR	STK00
                                           	MOVRA	_adc_val
                                           ;	.line	601; "MC32F7361.c"	if (flag_bat_is_empty) // 
                                           	JBSET	_flag3,7
                                           	GOTO	_00485_DS_
                                           ;	.line	603; "MC32F7361.c"	adc_val = 4095; // if (adc_val < ADCDETECT_CHARING_THRESHOLD)
                                           	MOVAI	0xff
                                           	MOVRA	_adc_val
                                           	MOVAI	0x0f
                                           	MOVRA	(_adc_val + 1)
                                           _00485_DS_
                                           ;	.line	606; "MC32F7361.c"	if (adc_charging_val != 0)
                                           	MOVAR	_adc_charging_val
                                           	ORAR	(_adc_charging_val + 1)
                                           	JBCLR	PFLAG,2
                                           	GOTO	_00487_DS_
                                           ;	.line	608; "MC32F7361.c"	adc_charging_val += adc_val;
                                           	MOVAR	_adc_val
                                           	ADDRA	_adc_charging_val
                                           	MOVAR	(_adc_val + 1)
                                           	JBCLR	PFLAG,0
                                           	JZAR	(_adc_val + 1)
                                           	ADDRA	(_adc_charging_val + 1)
                                           ;;shiftRight_Left2ResultLit:5339: shCount=1, size=2, sign=0, same=1, offr=0
                                           ;	.line	609; "MC32F7361.c"	adc_charging_val /= 2;
                                           	BCLR	PFLAG,0
                                           	RRR	(_adc_charging_val + 1)
                                           	RRR	_adc_charging_val
                                           	GOTO	_00488_DS_
                                           _00487_DS_
                                           ;	.line	613; "MC32F7361.c"	adc_charging_val += adc_val;
                                           	MOVAR	_adc_val
                                           	ADDRA	_adc_charging_val
                                           	MOVAR	(_adc_val + 1)
                                           	JBCLR	PFLAG,0
                                           	JZAR	(_adc_val + 1)
                                           	ADDRA	(_adc_charging_val + 1)
                                           _00488_DS_
                                           ;	.line	616; "MC32F7361.c"	if (FLAG_IS_IN_CHARGING)
                                           	JBSET	_flag1,2
                                           	GOTO	_00520_DS_
                                           ;;unsigned compare: left < lit(0x800=2048), size=2
                                           ;	.line	619; "MC32F7361.c"	if (adc_val < ADCDETECT_CHARING_THRESHOLD)
                                           	MOVAI	0x08
                                           	RSUBAR	(_adc_val + 1)
                                           	JBSET	PFLAG,2
                                           	GOTO	_00685_DS_
                                           	MOVAI	0x00
                                           	RSUBAR	_adc_val
                                           _00685_DS_
                                           	JBCLR	PFLAG,0
                                           	GOTO	_00490_DS_
                                           ;;genSkipc:3291: created from rifx:013B5EFC
                                           ;	.line	621; "MC32F7361.c"	cnt++;
                                           	INCR	_adc_scan_handle_cnt_65536_77
                                           ;;unsigned compare: left < lit(0x8=8), size=1
                                           _00490_DS_
                                           ;	.line	624; "MC32F7361.c"	if (cnt >= 8)
                                           	MOVAI	0x08
                                           	RSUBAR	_adc_scan_handle_cnt_65536_77
                                           	JBSET	PFLAG,0
                                           	GOTO	_00498_DS_
                                           ;;genSkipc:3291: created from rifx:013B5EFC
                                           ;	.line	627; "MC32F7361.c"	FLAG_IS_IN_CHARGING = 0;
                                           	BCLR	_flag1,2
                                           ;	.line	629; "MC32F7361.c"	LED_GREEN_OFF();
                                           	BSET	_IOP0bits,4
                                           ;	.line	630; "MC32F7361.c"	LED_RED_OFF(); // 
                                           	BSET	_IOP1bits,4
                                           ;	.line	631; "MC32F7361.c"	PWM2EC = 0;    // pwm
                                           	BCLR	_T2CRbits,6
                                           ;	.line	632; "MC32F7361.c"	T2DATA = 0;
                                           	CLRR	_T2DATA
                                           ;	.line	634; "MC32F7361.c"	FLAG_DURING_CHARGING_BAT_IS_NULL = 0; // 
                                           	BCLR	_flag1,7
                                           ;	.line	635; "MC32F7361.c"	break;
                                           	GOTO	_00529_DS_
                                           _00498_DS_
                                           ;	.line	638; "MC32F7361.c"	if (FLAG_IS_DEVICE_OPEN)
                                           	JBCLR	_flag1,0
                                           	GOTO	_00521_DS_
                                           ;	.line	643; "MC32F7361.c"	if (FLAG_BAT_IS_FULL)
                                           	JBCLR	_flag1,5
                                           	GOTO	_00521_DS_
                                           ;	.line	651; "MC32F7361.c"	LED_GREEN_OFF();
                                           	BSET	_IOP0bits,4
                                           	GOTO	_00521_DS_
                                           _00520_DS_
                                           ;	.line	658; "MC32F7361.c"	if (flag_bat_is_empty == 0 && adc_val >= ADCDETECT_CHARING_THRESHOLD)
                                           	JBCLR	_flag3,7
                                           	GOTO	_00509_DS_
                                           ;;unsigned compare: left < lit(0x800=2048), size=2
                                           	MOVAI	0x08
                                           	RSUBAR	(_adc_val + 1)
                                           	JBSET	PFLAG,2
                                           	GOTO	_00687_DS_
                                           	MOVAI	0x00
                                           	RSUBAR	_adc_val
                                           _00687_DS_
                                           	JBSET	PFLAG,0
                                           	GOTO	_00509_DS_
                                           ;;genSkipc:3291: created from rifx:013B5EFC
                                           ;	.line	660; "MC32F7361.c"	cnt++;
                                           	INCR	_adc_scan_handle_cnt_65536_77
                                           ;;unsigned compare: left < lit(0x8=8), size=1
                                           _00509_DS_
                                           ;	.line	663; "MC32F7361.c"	if (cnt >= 8)
                                           	MOVAI	0x08
                                           	RSUBAR	_adc_scan_handle_cnt_65536_77
                                           	JBSET	PFLAG,0
                                           	GOTO	_00521_DS_
                                           ;;genSkipc:3291: created from rifx:013B5EFC
                                           ;	.line	667; "MC32F7361.c"	full_charge_cnt = 0;
                                           	CLRR	_full_charge_cnt
                                           ;	.line	668; "MC32F7361.c"	over_charging_cnt = 0;
                                           	CLRR	_over_charging_cnt
                                           ;	.line	670; "MC32F7361.c"	FLAG_IS_IN_CHARGING = 1;
                                           	BSET	_flag1,2
                                           ;	.line	671; "MC32F7361.c"	PWM2EC = 1; // pwm
                                           	BSET	_T2CRbits,6
                                           ;	.line	674; "MC32F7361.c"	LED_GREEN_OFF();
                                           	BSET	_IOP0bits,4
                                           ;	.line	675; "MC32F7361.c"	HEATING_OFF(); // 
                                           	BCLR	_IOP1bits,2
                                           ;	.line	676; "MC32F7361.c"	FLAG_IS_DEVICE_OPEN = 0;
                                           	BCLR	_flag1,0
                                           ;	.line	680; "MC32F7361.c"	PWM0EC = 0;
                                           	BCLR	_T0CRbits,6
                                           ;	.line	681; "MC32F7361.c"	PWM1EC = 0;
                                           	BCLR	_T1CRbits,6
                                           ;	.line	683; "MC32F7361.c"	flag_is_low_battery = 0; // 
                                           	BCLR	_flag2,2
                                           ;	.line	684; "MC32F7361.c"	break;
                                           	GOTO	_00529_DS_
                                           _00521_DS_
                                           ;	.line	688; "MC32F7361.c"	key_event_handle();
                                           	CALL	_key_event_handle
                                           ;	.line	598; "MC32F7361.c"	for (i = 0; i < 10; i++)
                                           	INCR	_i
                                           	GOTO	_00527_DS_
                                           _00529_DS_
                                           ;	.line	690; "MC32F7361.c"	}
                                           	RETURN	
                                           ; exit point of _adc_scan_handle
                                           
                                           ;***
                                           ;  pBlock Stats: dbName = C
                                           ;***
                                           ;entry:  _key_event_handle	;Function start
                                           ; 2 exit points
                                           ;has an exit
                                           ;; Starting pCode block
                                           _key_event_handle	;Function start
                                           ; 2 exit points
                                           ;	.line	375; "MC32F7361.c"	if (key_event == KEY_EVENT_NONE)
                                           	MOVAI	0x00
                                           	ORAR	_key_event
                                           	JBSET	PFLAG,2
                                           	GOTO	_00331_DS_
                                           ;	.line	377; "MC32F7361.c"	return;
                                           	GOTO	_00375_DS_
                                           _00331_DS_
                                           ;	.line	380; "MC32F7361.c"	sub_mode_status = SUB_MODE_NONE; // 
                                           	CLRR	_sub_mode_status
                                           ;	.line	382; "MC32F7361.c"	if (FLAG_IS_DEVICE_OPEN)
                                           	JBSET	_flag1,0
                                           	GOTO	_00373_DS_
                                           ;	.line	385; "MC32F7361.c"	if (KEY_EVENT_MODE_PRESS == key_event || KEY_EVENT_MODE_HOLD == key_event)
                                           	MOVAR	_key_event
                                           	XORAI	0x01
                                           	JBSET	PFLAG,2
                                           	GOTO	_00413_DS_
                                           	GOTO	_00357_DS_
                                           _00413_DS_
                                           	MOVAR	_key_event
                                           	XORAI	0x02
                                           	JBSET	PFLAG,2
                                           	GOTO	_00374_DS_
                                           _00357_DS_
                                           ;	.line	387; "MC32F7361.c"	if (MODE_1 == mode_flag)
                                           	MOVAI	0x00
                                           	ORAR	_mode_flag
                                           	JBSET	PFLAG,2
                                           	GOTO	_00355_DS_
                                           ;	.line	394; "MC32F7361.c"	sub_mode_status = SUB_MODE_1_BEGIN;
                                           	MOVAI	0x01
                                           	MOVRA	_sub_mode_status
                                           ;	.line	395; "MC32F7361.c"	mode_flag = MODE_2;
                                           	MOVAI	0x01
                                           	MOVRA	_mode_flag
                                           	GOTO	_00356_DS_
                                           _00355_DS_
                                           ;	.line	397; "MC32F7361.c"	else if (MODE_2 == mode_flag)
                                           	MOVAR	_mode_flag
                                           	XORAI	0x01
                                           	JBSET	PFLAG,2
                                           	GOTO	_00352_DS_
                                           ;	.line	399; "MC32F7361.c"	HEATING_OFF();
                                           	BCLR	_IOP1bits,2
                                           ;	.line	400; "MC32F7361.c"	mode_flag = MODE_3;
                                           	MOVAI	0x02
                                           	MOVRA	_mode_flag
                                           	GOTO	_00356_DS_
                                           _00352_DS_
                                           ;	.line	402; "MC32F7361.c"	else if (MODE_3 == mode_flag)
                                           	MOVAR	_mode_flag
                                           	XORAI	0x02
                                           	JBSET	PFLAG,2
                                           	GOTO	_00356_DS_
                                           ;	.line	405; "MC32F7361.c"	HEATING_OFF(); // 
                                           	BCLR	_IOP1bits,2
                                           ;	.line	407; "MC32F7361.c"	if (flag_is_low_battery)
                                           	JBSET	_flag2,2
                                           	GOTO	_00343_DS_
                                           ;	.line	410; "MC32F7361.c"	flag_is_low_battery = 0;
                                           	BCLR	_flag2,2
                                           ;	.line	412; "MC32F7361.c"	LED_RED_OFF(); // LED
                                           	BSET	_IOP1bits,4
                                           _00343_DS_
                                           ;	.line	415; "MC32F7361.c"	LED_GREEN_OFF();
                                           	BSET	_IOP0bits,4
                                           ;	.line	416; "MC32F7361.c"	LED_RED_OFF();
                                           	BSET	_IOP1bits,4
                                           ;	.line	421; "MC32F7361.c"	PWM0EC = 0;
                                           	BCLR	_T0CRbits,6
                                           ;	.line	422; "MC32F7361.c"	PWM1EC = 0;
                                           	BCLR	_T1CRbits,6
                                           ;	.line	423; "MC32F7361.c"	FLAG_IS_DEVICE_OPEN = 0;
                                           	BCLR	_flag1,0
                                           _00356_DS_
                                           ;	.line	426; "MC32F7361.c"	turn_dir_ms_cnt = 0; // 
                                           	CLRR	_turn_dir_ms_cnt
                                           	CLRR	(_turn_dir_ms_cnt + 1)
                                           	CLRR	(_turn_dir_ms_cnt + 2)
                                           	CLRR	(_turn_dir_ms_cnt + 3)
                                           	GOTO	_00374_DS_
                                           _00373_DS_
                                           ;	.line	432; "MC32F7361.c"	if (KEY_EVENT_MODE_HOLD == key_event && 0 == FLAG_IS_IN_CHARGING)
                                           	MOVAR	_key_event
                                           	XORAI	0x02
                                           	JBSET	PFLAG,2
                                           	GOTO	_00374_DS_
                                           	JBCLR	_flag1,2
                                           	GOTO	_00374_DS_
                                           ;	.line	434; "MC32F7361.c"	LED_RED_OFF();
                                           	BSET	_IOP1bits,4
                                           ;	.line	435; "MC32F7361.c"	LED_GREEN_OFF();
                                           	BSET	_IOP0bits,4
                                           ;	.line	436; "MC32F7361.c"	FLAG_IS_DEVICE_OPEN = 1;
                                           	BSET	_flag1,0
                                           ;	.line	437; "MC32F7361.c"	PWM1EC = 1;
                                           	BSET	_T1CRbits,6
                                           ;	.line	438; "MC32F7361.c"	HEATING_ON();
                                           	BSET	_IOP1bits,2
                                           ;	.line	439; "MC32F7361.c"	mode_flag = MODE_1; //  MODE_2
                                           	CLRR	_mode_flag
                                           _00374_DS_
                                           ;	.line	444; "MC32F7361.c"	key_event = KEY_EVENT_NONE;
                                           	CLRR	_key_event
                                           _00375_DS_
                                           ;	.line	445; "MC32F7361.c"	}
                                           	RETURN	
                                           ; exit point of _key_event_handle
                                           
                                           ;***
                                           ;  pBlock Stats: dbName = C
                                           ;***
                                           ;entry:  _key_scan	;Function start
                                           ; 2 exit points
                                           ;has an exit
                                           ;1 compiler assigned register :
                                           ;   r0x1067
                                           ;; Starting pCode block
                                           _key_scan	;Function start
                                           ; 2 exit points
                                           ;	.line	272; "MC32F7361.c"	volatile u8 cur_key_id = KEY_ID_NONE;
                                           	CLRR	_key_scan_cur_key_id_65536_28
                                           ;	.line	277; "MC32F7361.c"	if (1 == KEY_MODE_PIN) // 
                                           	CLRR	r0x1067
                                           	JBCLR	_IOP1bits,1
                                           	INCR	r0x1067
                                           	MOVAR	r0x1067
                                           	XORAI	0x01
                                           	JBSET	PFLAG,2
                                           	GOTO	_00214_DS_
                                           ;	.line	279; "MC32F7361.c"	cur_key_id = KEY_ID_MODE;
                                           	MOVAI	0x01
                                           	MOVRA	_key_scan_cur_key_id_65536_28
                                           _00214_DS_
                                           ;	.line	282; "MC32F7361.c"	if (cur_key_id != filter_key_id)
                                           	MOVAR	_key_scan_filter_key_id_65536_28
                                           	XORAR	_key_scan_cur_key_id_65536_28
                                           	JBSET	PFLAG,2
                                           	GOTO	_00323_DS_
                                           	GOTO	_00216_DS_
                                           _00323_DS_
                                           ;	.line	285; "MC32F7361.c"	filter_cnt = 0;
                                           	CLRR	_key_scan_filter_cnt_65536_28
                                           ;	.line	286; "MC32F7361.c"	filter_key_id = cur_key_id;
                                           	MOVAR	_key_scan_cur_key_id_65536_28
                                           	MOVRA	_key_scan_filter_key_id_65536_28
                                           ;	.line	287; "MC32F7361.c"	return;
                                           	GOTO	_00253_DS_
                                           ;;unsigned compare: left < lit(0x3=3), size=1
                                           _00216_DS_
                                           ;	.line	290; "MC32F7361.c"	if (filter_cnt < KEY_FILTER_TIMES)
                                           	MOVAI	0x03
                                           	RSUBAR	_key_scan_filter_cnt_65536_28
                                           	JBCLR	PFLAG,0
                                           	GOTO	_00218_DS_
                                           ;;genSkipc:3291: created from rifx:013B5EFC
                                           ;	.line	294; "MC32F7361.c"	filter_cnt++;
                                           	INCR	_key_scan_filter_cnt_65536_28
                                           ;	.line	295; "MC32F7361.c"	return;
                                           	GOTO	_00253_DS_
                                           _00218_DS_
                                           ;	.line	300; "MC32F7361.c"	if (last_key_id != cur_key_id)
                                           	MOVAR	_key_scan_cur_key_id_65536_28
                                           	XORAR	_key_scan_last_key_id_65536_28
                                           	JBSET	PFLAG,2
                                           	GOTO	_00325_DS_
                                           	GOTO	_00251_DS_
                                           _00325_DS_
                                           ;	.line	302; "MC32F7361.c"	if (last_key_id == KEY_ID_NONE)
                                           	MOVAI	0x00
                                           	ORAR	_key_scan_last_key_id_65536_28
                                           	JBSET	PFLAG,2
                                           	GOTO	_00229_DS_
                                           ;	.line	305; "MC32F7361.c"	press_cnt = 0;
                                           	CLRR	_key_scan_press_cnt_65536_28
                                           	GOTO	_00252_DS_
                                           _00229_DS_
                                           ;	.line	307; "MC32F7361.c"	else if (cur_key_id == KEY_ID_NONE)
                                           	MOVAI	0x00
                                           	ORAR	_key_scan_cur_key_id_65536_28
                                           	JBSET	PFLAG,2
                                           	GOTO	_00252_DS_
                                           ;;unsigned compare: left < lit(0x4B=75), size=1
                                           ;	.line	310; "MC32F7361.c"	if (press_cnt < 75)
                                           	MOVAI	0x4b
                                           	RSUBAR	_key_scan_press_cnt_65536_28
                                           	JBCLR	PFLAG,0
                                           	GOTO	_00224_DS_
                                           ;;genSkipc:3291: created from rifx:013B5EFC
                                           ;	.line	313; "MC32F7361.c"	if (KEY_ID_MODE == last_key_id)
                                           	MOVAR	_key_scan_last_key_id_65536_28
                                           	XORAI	0x01
                                           	JBSET	PFLAG,2
                                           	GOTO	_00252_DS_
                                           ;	.line	316; "MC32F7361.c"	key_event = KEY_EVENT_MODE_PRESS;
                                           	MOVAI	0x01
                                           	MOVRA	_key_event
                                           	GOTO	_00252_DS_
                                           _00224_DS_
                                           ;	.line	322; "MC32F7361.c"	if (KEY_ID_MODE == last_key_id)
                                           	MOVAR	_key_scan_last_key_id_65536_28
                                           	XORAI	0x01
                                           	JBSET	PFLAG,2
                                           	GOTO	_00252_DS_
                                           ;	.line	324; "MC32F7361.c"	flag_is_key_mode_hold = 0;
                                           	CLRR	_key_scan_flag_is_key_mode_hold_65536_28
                                           	GOTO	_00252_DS_
                                           _00251_DS_
                                           ;	.line	329; "MC32F7361.c"	else if (cur_key_id != KEY_ID_NONE)
                                           	MOVAI	0x00
                                           	ORAR	_key_scan_cur_key_id_65536_28
                                           	JBCLR	PFLAG,2
                                           	GOTO	_00252_DS_
                                           ;;unsigned compare: left < lit(0xFF=255), size=1
                                           ;	.line	332; "MC32F7361.c"	if (press_cnt < 255)
                                           	MOVAI	0xff
                                           	RSUBAR	_key_scan_press_cnt_65536_28
                                           	JBCLR	PFLAG,0
                                           	GOTO	_00232_DS_
                                           ;;genSkipc:3291: created from rifx:013B5EFC
                                           ;	.line	333; "MC32F7361.c"	press_cnt++;
                                           	INCR	_key_scan_press_cnt_65536_28
                                           _00232_DS_
                                           ;	.line	335; "MC32F7361.c"	if (KEY_ID_MODE == cur_key_id)
                                           	MOVAR	_key_scan_cur_key_id_65536_28
                                           	XORAI	0x01
                                           	JBSET	PFLAG,2
                                           	GOTO	_00252_DS_
                                           ;	.line	337; "MC32F7361.c"	if (FLAG_IS_DEVICE_OPEN)
                                           	JBSET	_flag1,0
                                           	GOTO	_00244_DS_
                                           ;;unsigned compare: left < lit(0xC8=200), size=1
                                           ;	.line	339; "MC32F7361.c"	if (press_cnt >= 200) // 2000ms
                                           	MOVAI	0xc8
                                           	RSUBAR	_key_scan_press_cnt_65536_28
                                           	JBSET	PFLAG,0
                                           	GOTO	_00252_DS_
                                           ;;genSkipc:3291: created from rifx:013B5EFC
                                           ;	.line	341; "MC32F7361.c"	if (flag_is_key_mode_hold)
                                           	MOVAI	0x00
                                           	ORAR	_key_scan_flag_is_key_mode_hold_65536_28
                                           	JBSET	PFLAG,2
                                           	GOTO	_00252_DS_
                                           ;	.line	346; "MC32F7361.c"	key_event = KEY_EVENT_MODE_HOLD;
                                           	MOVAI	0x02
                                           	MOVRA	_key_event
                                           ;	.line	347; "MC32F7361.c"	flag_is_key_mode_hold = 1;
                                           	MOVAI	0x01
                                           	MOVRA	_key_scan_flag_is_key_mode_hold_65536_28
                                           	GOTO	_00252_DS_
                                           ;;unsigned compare: left < lit(0x64=100), size=1
                                           _00244_DS_
                                           ;	.line	354; "MC32F7361.c"	if (press_cnt >= 100) // 1000ms1024ms
                                           	MOVAI	0x64
                                           	RSUBAR	_key_scan_press_cnt_65536_28
                                           	JBSET	PFLAG,0
                                           	GOTO	_00252_DS_
                                           ;;genSkipc:3291: created from rifx:013B5EFC
                                           ;	.line	356; "MC32F7361.c"	if (flag_is_key_mode_hold)
                                           	MOVAI	0x00
                                           	ORAR	_key_scan_flag_is_key_mode_hold_65536_28
                                           	JBSET	PFLAG,2
                                           	GOTO	_00252_DS_
                                           ;	.line	361; "MC32F7361.c"	key_event = KEY_EVENT_MODE_HOLD;
                                           	MOVAI	0x02
                                           	MOVRA	_key_event
                                           ;	.line	362; "MC32F7361.c"	flag_is_key_mode_hold = 1;
                                           	MOVAI	0x01
                                           	MOVRA	_key_scan_flag_is_key_mode_hold_65536_28
                                           _00252_DS_
                                           ;	.line	369; "MC32F7361.c"	last_key_id = cur_key_id;
                                           	MOVAR	_key_scan_cur_key_id_65536_28
                                           	MOVRA	_key_scan_last_key_id_65536_28
                                           _00253_DS_
                                           ;	.line	370; "MC32F7361.c"	}
                                           	RETURN	
                                           ; exit point of _key_scan
                                           
                                           ;***
                                           ;  pBlock Stats: dbName = C
                                           ;***
                                           ;entry:  _Sys_Init	;Function start
                                           ; 2 exit points
                                           ;has an exit
                                           ;functions called:
                                           ;   _CLR_RAM
                                           ;   _adc_config
                                           ;   _delay_ms
                                           ;   _CLR_RAM
                                           ;   _adc_config
                                           ;   _delay_ms
                                           ;1 compiler assigned register :
                                           ;   STK00
                                           ;; Starting pCode block
                                           _Sys_Init	;Function start
                                           ; 2 exit points
                                           ;	.line	166; "MC32F7361.c"	GIE = 0;
                                           	BCLR	_MCRbits,7
                                           ;	.line	167; "MC32F7361.c"	CLR_RAM();
                                           	CALL	_CLR_RAM
                                           ;	.line	171; "MC32F7361.c"	IOP0 = (0x01 << 4); // LED
                                           	MOVAI	0x10
                                           	MOVRA	_IOP0
                                           ;	.line	172; "MC32F7361.c"	OEP0 = 0x3F;        // io 1:out  0:in
                                           	MOVAI	0x3f
                                           	MOVRA	_OEP0
                                           ;	.line	173; "MC32F7361.c"	PUP0 = 0x00;        // io   1:enable  0:disable
                                           	CLRR	_PUP0
                                           ;	.line	174; "MC32F7361.c"	PDP0 = 0x00;        // io   1:enable  0:disable
                                           	CLRR	_PDP0
                                           ;	.line	175; "MC32F7361.c"	P0ADCR = 0x00;      // io  1:  0:io
                                           	CLRR	_P0ADCR
                                           ;	.line	178; "MC32F7361.c"	IOP1 = (0x01 << 4); // LED
                                           	MOVAI	0x10
                                           	MOVRA	_IOP1
                                           ;	.line	179; "MC32F7361.c"	OEP1 = 0xFF;        // io 1:out  0:in
                                           	MOVAI	0xff
                                           	MOVRA	_OEP1
                                           ;	.line	180; "MC32F7361.c"	PUP1 = 0x00;        // io   1:enable  0:disable
                                           	CLRR	_PUP1
                                           ;	.line	181; "MC32F7361.c"	PDP1 = 0x00;        // io   1:enable  0:disable
                                           	CLRR	_PDP1
                                           ;	.line	182; "MC32F7361.c"	P1ADCR = 0x00;      // io  1:  0:io
                                           	CLRR	_P1ADCR
                                           ;	.line	184; "MC32F7361.c"	IOP2 = 0x00; // io
                                           	CLRR	_IOP2
                                           ;	.line	185; "MC32F7361.c"	OEP2 = 0xFF; // io 1:out  0:in
                                           	MOVAI	0xff
                                           	MOVRA	_OEP2
                                           ;	.line	186; "MC32F7361.c"	PUP2 = 0x00; // io   1:enable  0:disable
                                           	CLRR	_PUP2
                                           ;	.line	187; "MC32F7361.c"	PDP2 = 0x00; // io   1:enable  0:disablea
                                           	CLRR	_PDP2
                                           ;	.line	189; "MC32F7361.c"	PMOD = 0x00;  // P00P01P13 io
                                           	CLRR	_PMOD
                                           ;	.line	190; "MC32F7361.c"	DRVCR = 0x80; // 
                                           	MOVAI	0x80
                                           	MOVRA	_DRVCR
                                           ;	.line	195; "MC32F7361.c"	T0LOAD = (u8)(172 - 1);
                                           	MOVAI	0xab
                                           	MOVRA	_T0LOAD
                                           ;	.line	197; "MC32F7361.c"	T0DATA = 255; // 100%TxLOAD
                                           	MOVAI	0xff
                                           	MOVRA	_T0DATA
                                           ;	.line	198; "MC32F7361.c"	PWM0EC = 0;   // PWM
                                           	BCLR	_T0CRbits,6
                                           ;	.line	199; "MC32F7361.c"	T0CR = 0x81;  // FCPU2
                                           	MOVAI	0x81
                                           	MOVRA	_T0CR
                                           ;	.line	206; "MC32F7361.c"	T1LOAD = (u8)(172 - 1);
                                           	MOVAI	0xab
                                           	MOVRA	_T1LOAD
                                           ;	.line	208; "MC32F7361.c"	T1DATA = 255; // 100%TxLOAD
                                           	MOVAI	0xff
                                           	MOVRA	_T1DATA
                                           ;	.line	209; "MC32F7361.c"	PWM1EC = 0;   // PWM1
                                           	BCLR	_T1CRbits,6
                                           ;	.line	210; "MC32F7361.c"	T1CR = 0x81;  // FCPU2
                                           	MOVAI	0x81
                                           	MOVRA	_T1CR
                                           ;	.line	216; "MC32F7361.c"	T2CKS1 = 0;
                                           	BCLR	_T2CRbits,4
                                           ;	.line	217; "MC32F7361.c"	T2CKS0 = 1;
                                           	BSET	_T2CRbits,3
                                           ;	.line	219; "MC32F7361.c"	TMRCKS1 = 1;
                                           	BSET	_PWMCR1bits,4
                                           ;	.line	220; "MC32F7361.c"	TMRCKS0 = 0;
                                           	BCLR	_PWMCR1bits,3
                                           ;	.line	223; "MC32F7361.c"	T2PRS2 = 0;
                                           	BCLR	_T2CRbits,2
                                           ;	.line	224; "MC32F7361.c"	T2PRS1 = 0;
                                           	BCLR	_T2CRbits,1
                                           ;	.line	225; "MC32F7361.c"	T2PRS0 = 1;
                                           	BSET	_T2CRbits,0
                                           ;	.line	234; "MC32F7361.c"	T2LOAD = 127; // 125125.654KHz
                                           	MOVAI	0x7f
                                           	MOVRA	_T2LOAD
                                           ;	.line	236; "MC32F7361.c"	T2DATA = 0;
                                           	CLRR	_T2DATA
                                           ;	.line	237; "MC32F7361.c"	PWM2EC = 0; // PWM
                                           	BCLR	_T2CRbits,6
                                           ;	.line	238; "MC32F7361.c"	T2EN = 1;
                                           	BSET	_T2CRbits,7
                                           ;	.line	242; "MC32F7361.c"	T3LOAD = 25 - 1; //
                                           	MOVAI	0x18
                                           	MOVRA	_T3LOAD
                                           ;	.line	243; "MC32F7361.c"	T3CR = 0x85;     // FCPU32
                                           	MOVAI	0x85
                                           	MOVRA	_T3CR
                                           ;	.line	244; "MC32F7361.c"	T3IE = 1;
                                           	BSET	_INTEbits,7
                                           ;	.line	249; "MC32F7361.c"	P11PD = 1; // 
                                           	BSET	_PDP1bits,1
                                           ;	.line	250; "MC32F7361.c"	P11OE = 0; // 
                                           	BCLR	_OEP1bits,1
                                           ;	.line	257; "MC32F7361.c"	adc_config();
                                           	CALL	_adc_config
                                           ;	.line	259; "MC32F7361.c"	GIE = 1;
                                           	BSET	_MCRbits,7
                                           ;	.line	261; "MC32F7361.c"	delay_ms(1); // 
                                           	MOVAI	0x01
                                           	MOVRA	STK00
                                           	MOVAI	0x00
                                           	CALL	_delay_ms
                                           ;	.line	262; "MC32F7361.c"	}
                                           	RETURN	
                                           ; exit point of _Sys_Init
                                           
                                           ;***
                                           ;  pBlock Stats: dbName = C
                                           ;***
                                           ;entry:  _adc_get_val_once	;Function start
                                           ; 2 exit points
                                           ;has an exit
                                           ;7 compiler assigned registers:
                                           ;   r0x104E
                                           ;   r0x104F
                                           ;   r0x1050
                                           ;   r0x1051
                                           ;   r0x1052
                                           ;   r0x1053
                                           ;   STK00
                                           ;; Starting pCode block
                                           _adc_get_val_once	;Function start
                                           ; 2 exit points
                                           ;	.line	127; "MC32F7361.c"	ADEOC = 0; // ADCAD
                                           	BCLR	_ADCR0bits,1
                                           _00204_DS_
                                           ;	.line	128; "MC32F7361.c"	while (!ADEOC)
                                           	JBSET	_ADCR0bits,1
                                           	GOTO	_00204_DS_
                                           ;	.line	130; "MC32F7361.c"	g_temp_value = ADRH; // 
                                           	MOVAR	_ADRH
                                           	MOVRA	r0x104E
                                           	CLRR	r0x104F
                                           ;	.line	131; "MC32F7361.c"	g_temp_value = g_temp_value << 4 | (ADRL & 0x0F);
                                           	SWAPAR	r0x104F
                                           	ANDAI	0xf0
                                           	MOVRA	r0x1050
                                           	SWAPAR	r0x104E
                                           	MOVRA	r0x1051
                                           	ANDAI	0x0f
                                           	ORRA	r0x1050
                                           	XORRA	r0x1051
                                           	MOVAR	_ADRL
                                           	MOVRA	r0x104E
                                           	CLRR	r0x104F
                                           	MOVAI	0x0f
                                           	ANDRA	r0x104E
                                           	CLRR	r0x104F
                                           ;;101	MOVAR	r0x104E
                                           ;;99	MOVRA	r0x1052
                                           ;;104	MOVAR	r0x104F
                                           ;;102	MOVRA	r0x1053
                                           ;;100	MOVAR	r0x1052
                                           	MOVAR	r0x104E
                                           	ORRA	r0x1051
                                           ;;103	MOVAR	r0x1053
                                           	MOVAI	0x00
                                           	ORRA	r0x1050
                                           ;	.line	155; "MC32F7361.c"	return g_temp_value;
                                           	MOVAR	r0x1051
                                           	MOVRA	STK00
                                           	MOVAR	r0x1050
                                           ;	.line	156; "MC32F7361.c"	}
                                           	RETURN	
                                           ; exit point of _adc_get_val_once
                                           
                                           ;***
                                           ;  pBlock Stats: dbName = C
                                           ;***
                                           ;entry:  _adc_get_val	;Function start
                                           ; 2 exit points
                                           ;has an exit
                                           ;16 compiler assigned registers:
                                           ;   r0x104E
                                           ;   r0x104F
                                           ;   r0x1050
                                           ;   r0x1051
                                           ;   r0x1052
                                           ;   r0x1053
                                           ;   r0x1054
                                           ;   r0x1055
                                           ;   r0x1056
                                           ;   r0x1057
                                           ;   r0x1058
                                           ;   r0x1059
                                           ;   r0x105A
                                           ;   r0x105B
                                           ;   r0x105C
                                           ;   STK00
                                           ;; Starting pCode block
                                           _adc_get_val	;Function start
                                           ; 2 exit points
                                           ;	.line	74; "MC32F7361.c"	u32 g_tmpbuff = 0;
                                           	CLRR	r0x104E
                                           	CLRR	r0x104F
                                           	CLRR	r0x1050
                                           	CLRR	r0x1051
                                           ;	.line	75; "MC32F7361.c"	u16 g_adcmax = 0;
                                           	CLRR	r0x1052
                                           	CLRR	r0x1053
                                           ;	.line	76; "MC32F7361.c"	u16 g_adcmin = 0xFFFF;
                                           	MOVAI	0xff
                                           	MOVRA	r0x1054
                                           	MOVRA	r0x1055
                                           ;	.line	79; "MC32F7361.c"	for (i = 0; i < 20; i++)
                                           	CLRR	r0x1056
                                           _00158_DS_
                                           ;	.line	81; "MC32F7361.c"	ADEOC = 0; // ADCAD
                                           	BCLR	_ADCR0bits,1
                                           _00147_DS_
                                           ;	.line	82; "MC32F7361.c"	while (!ADEOC)
                                           	JBSET	_ADCR0bits,1
                                           	GOTO	_00147_DS_
                                           ;	.line	84; "MC32F7361.c"	g_temp_value = ADRH; // 
                                           	MOVAR	_ADRH
                                           	MOVRA	r0x1057
                                           	CLRR	r0x1058
                                           ;	.line	85; "MC32F7361.c"	g_temp_value = g_temp_value << 4 | (ADRL & 0x0F);
                                           	SWAPAR	r0x1058
                                           	ANDAI	0xf0
                                           	MOVRA	r0x1059
                                           	SWAPAR	r0x1057
                                           	MOVRA	r0x105A
                                           	ANDAI	0x0f
                                           	ORRA	r0x1059
                                           	XORRA	r0x105A
                                           	MOVAR	_ADRL
                                           	MOVRA	r0x1057
                                           	CLRR	r0x1058
                                           	MOVAI	0x0f
                                           	ANDRA	r0x1057
                                           	CLRR	r0x1058
                                           ;;120	MOVAR	r0x1057
                                           	MOVAI	0x00
                                           	MOVRA	r0x105C
                                           ;;119	MOVAR	r0x105B
                                           	MOVAR	r0x1057
                                           	MOVRA	r0x105B
                                           	ORAR	r0x105A
                                           	MOVRA	r0x1057
                                           	MOVAR	r0x105C
                                           	ORAR	r0x1059
                                           	MOVRA	r0x1058
                                           ;;unsigned compare: left < lit(0x2=2), size=1
                                           ;	.line	86; "MC32F7361.c"	if (i < 2)
                                           	MOVAI	0x02
                                           	RSUBAR	r0x1056
                                           	JBSET	PFLAG,0
                                           	GOTO	_00156_DS_
                                           ;;genSkipc:3291: created from rifx:013B5EFC
                                           ;	.line	88; "MC32F7361.c"	if (g_temp_value > g_adcmax)
                                           	MOVAR	r0x1058
                                           	RSUBAR	r0x1053
                                           	JBSET	PFLAG,2
                                           	GOTO	_00198_DS_
                                           	MOVAR	r0x1057
                                           	RSUBAR	r0x1052
                                           _00198_DS_
                                           	JBCLR	PFLAG,0
                                           	GOTO	_00153_DS_
                                           ;;genSkipc:3291: created from rifx:013B5EFC
                                           ;	.line	89; "MC32F7361.c"	g_adcmax = g_temp_value; // 
                                           	MOVAR	r0x1057
                                           	MOVRA	r0x1052
                                           	MOVAR	r0x1058
                                           	MOVRA	r0x1053
                                           _00153_DS_
                                           ;	.line	90; "MC32F7361.c"	if (g_temp_value < g_adcmin)
                                           	MOVAR	r0x1055
                                           	RSUBAR	r0x1058
                                           	JBSET	PFLAG,2
                                           	GOTO	_00199_DS_
                                           	MOVAR	r0x1054
                                           	RSUBAR	r0x1057
                                           _00199_DS_
                                           	JBCLR	PFLAG,0
                                           	GOTO	_00155_DS_
                                           ;;genSkipc:3291: created from rifx:013B5EFC
                                           ;	.line	91; "MC32F7361.c"	g_adcmin = g_temp_value; // 
                                           	MOVAR	r0x1057
                                           	MOVRA	r0x1054
                                           	MOVAR	r0x1058
                                           	MOVRA	r0x1055
                                           ;;116	MOVAR	r0x1057
                                           ;;118	MOVAR	r0x1058
                                           _00155_DS_
                                           ;	.line	92; "MC32F7361.c"	g_tmpbuff += g_temp_value;
                                           	CLRR	r0x105B
                                           	CLRR	r0x105C
                                           ;;115	MOVAR	r0x105A
                                           	MOVAR	r0x1057
                                           	MOVRA	r0x105A
                                           	ADDRA	r0x104E
                                           ;;117	MOVAR	r0x1059
                                           	MOVAR	r0x1058
                                           	MOVRA	r0x1059
                                           	JBCLR	PFLAG,0
                                           	JZAR	r0x1059
                                           	ADDRA	r0x104F
                                           	MOVAR	r0x105B
                                           	JBCLR	PFLAG,0
                                           	JZAR	r0x105B
                                           	ADDRA	r0x1050
                                           	MOVAR	r0x105C
                                           	JBCLR	PFLAG,0
                                           	JZAR	r0x105C
                                           	ADDRA	r0x1051
                                           _00156_DS_
                                           ;	.line	79; "MC32F7361.c"	for (i = 0; i < 20; i++)
                                           	INCR	r0x1056
                                           ;;unsigned compare: left < lit(0x14=20), size=1
                                           	MOVAI	0x14
                                           	RSUBAR	r0x1056
                                           	JBSET	PFLAG,0
                                           	GOTO	_00158_DS_
                                           ;;genSkipc:3291: created from rifx:013B5EFC
                                           ;;114	MOVAR	r0x1052
                                           ;	.line	94; "MC32F7361.c"	g_tmpbuff -= g_adcmax;           // 
                                           	MOVAR	r0x1053
                                           	MOVRA	r0x1057
                                           	CLRR	r0x1058
                                           	CLRR	r0x105A
                                           ;;113	MOVAR	r0x1056
                                           	MOVAR	r0x1052
                                           	MOVRA	r0x1056
                                           	RSUBAR	r0x104E
                                           	MOVRA	r0x1052
                                           	MOVAR	r0x104F
                                           	MOVRA	r0x1053
                                           	MOVAR	r0x1057
                                           	JBSET	PFLAG,0
                                           	JZAR	r0x1057
                                           	RSUBRA	r0x1053
                                           	MOVAR	r0x1050
                                           	MOVRA	r0x1059
                                           	MOVAR	r0x1058
                                           	JBSET	PFLAG,0
                                           	JZAR	r0x1058
                                           	RSUBRA	r0x1059
                                           	MOVAR	r0x105A
                                           	JBSET	PFLAG,0
                                           	INCAR	r0x105A
                                           	RSUBAR	r0x1051
                                           	MOVRA	r0x105B
                                           ;;106	MOVAR	r0x1054
                                           ;;108	MOVAR	r0x1055
                                           ;	.line	95; "MC32F7361.c"	g_tmpbuff -= g_adcmin;           // 
                                           	CLRR	r0x1050
                                           	CLRR	r0x1051
                                           ;;105	MOVAR	r0x104E
                                           	MOVAR	r0x1054
                                           	MOVRA	r0x104E
                                           	RSUBRA	r0x1052
                                           ;;107	MOVAR	r0x104F
                                           	MOVAR	r0x1055
                                           	MOVRA	r0x104F
                                           	JBSET	PFLAG,0
                                           	JZAR	r0x104F
                                           	RSUBRA	r0x1053
                                           	MOVAR	r0x1050
                                           	JBSET	PFLAG,0
                                           	JZAR	r0x1050
                                           	RSUBRA	r0x1059
                                           	MOVAR	r0x1051
                                           	JBSET	PFLAG,0
                                           	JZAR	r0x1051
                                           	RSUBRA	r0x105B
                                           ;	.line	96; "MC32F7361.c"	g_temp_value = (g_tmpbuff >> 4); // 16
                                           	SWAPAR	r0x1052
                                           	ANDAI	0x0f
                                           	MOVRA	r0x104E
                                           	SWAPAR	r0x1053
                                           	MOVRA	r0x104F
                                           	ANDAI	0xf0
                                           	ORRA	r0x104E
                                           	XORRA	r0x104F
                                           	SWAPAR	r0x1059
                                           	MOVRA	r0x1050
                                           	ANDAI	0xf0
                                           	ORRA	r0x104F
                                           	XORRA	r0x1050
                                           	SWAPAR	r0x105B
                                           	MOVRA	r0x1051
                                           	ANDAI	0xf0
                                           	ORRA	r0x1050
                                           	XORRA	r0x1051
                                           ;;110	MOVAR	r0x104E
                                           ;;112	MOVAR	r0x104F
                                           ;;109	MOVAR	r0x1052
                                           ;	.line	120; "MC32F7361.c"	return g_temp_value;
                                           	MOVAR	r0x104E
                                           	MOVRA	r0x1052
                                           	MOVRA	STK00
                                           ;;111	MOVAR	r0x1053
                                           	MOVAR	r0x104F
                                           	MOVRA	r0x1053
                                           ;	.line	121; "MC32F7361.c"	}
                                           	RETURN	
                                           ; exit point of _adc_get_val
                                           
                                           ;***
                                           ;  pBlock Stats: dbName = C
                                           ;***
                                           ;entry:  _adc_sel_pin	;Function start
                                           ; 2 exit points
                                           ;has an exit
                                           ;functions called:
                                           ;   _delay_ms
                                           ;   _delay_ms
                                           ;2 compiler assigned registers:
                                           ;   r0x1054
                                           ;   STK00
                                           ;; Starting pCode block
                                           _adc_sel_pin	;Function start
                                           ; 2 exit points
                                           ;	.line	48; "MC32F7361.c"	void adc_sel_pin(u8 adc_pin)
                                           	MOVRA	r0x1054
                                           ;	.line	51; "MC32F7361.c"	switch (adc_pin)
                                           	MOVAR	r0x1054
                                           	XORAI	0x01
                                           	JBSET	PFLAG,2
                                           	GOTO	_00141_DS_
                                           	GOTO	_00127_DS_
                                           _00141_DS_
                                           	MOVAR	r0x1054
                                           	XORAI	0x02
                                           	JBSET	PFLAG,2
                                           	GOTO	_00142_DS_
                                           	GOTO	_00128_DS_
                                           _00142_DS_
                                           	GOTO	_00130_DS_
                                           _00127_DS_
                                           ;	.line	54; "MC32F7361.c"	ADCR0 &= ~(0x0F << 4); // 
                                           	MOVAI	0x0f
                                           	ANDRA	_ADCR0
                                           ;	.line	55; "MC32F7361.c"	break;
                                           	GOTO	_00130_DS_
                                           _00128_DS_
                                           ;	.line	58; "MC32F7361.c"	ADCR0 &= ~(0x0F << 4); // 
                                           	MOVAI	0x0f
                                           	ANDRA	_ADCR0
                                           ;	.line	59; "MC32F7361.c"	ADCR0 |= 0x01 << 4;    // AIN1--P02;
                                           	BSET	_ADCR0,4
                                           _00130_DS_
                                           ;	.line	66; "MC32F7361.c"	delay_ms(1); // adcadc
                                           	MOVAI	0x01
                                           	MOVRA	STK00
                                           	MOVAI	0x00
                                           	CALL	_delay_ms
                                           ;	.line	67; "MC32F7361.c"	}
                                           	RETURN	
                                           ; exit point of _adc_sel_pin
                                           
                                           ;***
                                           ;  pBlock Stats: dbName = C
                                           ;***
                                           ;entry:  _adc_config	;Function start
                                           ; 2 exit points
                                           ;has an exit
                                           ;; Starting pCode block
                                           _adc_config	;Function start
                                           ; 2 exit points
                                           ;	.line	34; "MC32F7361.c"	P00OE = 0; // 
                                           	BCLR	_OEP0bits,0
                                           ;	.line	35; "MC32F7361.c"	P00DC = 1; // 
                                           	BSET	_P0ADCRbits,0
                                           ;	.line	38; "MC32F7361.c"	P02OE = 0; // 
                                           	BCLR	_OEP0bits,2
                                           ;	.line	39; "MC32F7361.c"	P02DC = 1; // 
                                           	BSET	_P0ADCRbits,2
                                           ;	.line	41; "MC32F7361.c"	ADCR0 = 0x0A; // 12ADCADC
                                           	MOVAI	0x0a
                                           	MOVRA	_ADCR0
                                           ;	.line	42; "MC32F7361.c"	ADCR1 = 0xE1; // 125K  3V
                                           	MOVAI	0xe1
                                           	MOVRA	_ADCR1
                                           ;	.line	43; "MC32F7361.c"	ADCR2 = 0xFF; // ADC15ADC
                                           	MOVAI	0xff
                                           	MOVRA	_ADCR2
                                           ;	.line	44; "MC32F7361.c"	ADEN = 1;     // ADC
                                           	BSET	_ADCR0bits,0
                                           ;	.line	45; "MC32F7361.c"	}
                                           	RETURN	
                                           ; exit point of _adc_config
                                           
                                           ;***
                                           ;  pBlock Stats: dbName = C
                                           ;***
                                           ;entry:  _CLR_RAM	;Function start
                                           ; 2 exit points
                                           ;has an exit
                                           ;; Starting pCode block
                                           _CLR_RAM	;Function start
                                           ; 2 exit points
                                           ;	.line	22; "MC32F7361.c"	for (FSR0 = 0; FSR0 < 0xff; FSR0++)
                                           	CLRR	_FSR0
                                           ;;unsigned compare: left < lit(0xFF=255), size=1
                                           _00118_DS_
                                           	MOVAI	0xff
                                           	RSUBAR	_FSR0
                                           	JBCLR	PFLAG,0
                                           	GOTO	_00116_DS_
                                           ;;genSkipc:3291: created from rifx:013B5EFC
                                           ;	.line	24; "MC32F7361.c"	INDF0 = 0x00;
                                           	CLRR	_INDF0
                                           ;	.line	22; "MC32F7361.c"	for (FSR0 = 0; FSR0 < 0xff; FSR0++)
                                           	INCR	_FSR0
                                           	GOTO	_00118_DS_
                                           _00116_DS_
                                           ;	.line	26; "MC32F7361.c"	FSR0 = 0xFF;
                                           	MOVAI	0xff
                                           	MOVRA	_FSR0
                                           ;	.line	27; "MC32F7361.c"	INDF0 = 0x00;
                                           	CLRR	_INDF0
                                           ;	.line	28; "MC32F7361.c"	}
                                           	RETURN	
                                           ; exit point of _CLR_RAM
                                           
                                           ;***
                                           ;  pBlock Stats: dbName = C
                                           ;***
                                           ;entry:  _delay_ms	;Function start
                                           ; 2 exit points
                                           ;has an exit
                                           ;7 compiler assigned registers:
                                           ;   r0x104E
                                           ;   STK00
                                           ;   r0x104F
                                           ;   r0x1050
                                           ;   r0x1051
                                           ;   r0x1052
                                           ;   r0x1053
                                           ;; Starting pCode block
                                           _delay_ms	;Function start
                                           ; 2 exit points
                                           ;	.line	333; "user.h"	void delay_ms(u16 xms)
                                           	MOVRA	r0x104E
                                           	MOVAR	STK00
                                           	MOVRA	r0x104F
                                           _00108_DS_
                                           ;	.line	335; "user.h"	while (xms)
                                           	MOVAR	r0x104F
                                           	ORAR	r0x104E
                                           	JBCLR	PFLAG,2
                                           	GOTO	_00111_DS_
                                           ;	.line	338; "user.h"	while (i--)
                                           	MOVAI	0x3c
                                           	MOVRA	r0x1050
                                           	MOVAI	0x02
                                           	MOVRA	r0x1051
                                           _00105_DS_
                                           	MOVAR	r0x1050
                                           	MOVRA	r0x1052
                                           	MOVAR	r0x1051
                                           	MOVRA	r0x1053
                                           	MOVAI	0xff
                                           	ADDRA	r0x1050
                                           	JBSET	PFLAG,0
                                           	DECR	r0x1051
                                           	MOVAR	r0x1052
                                           	ORAR	r0x1053
                                           	JBCLR	PFLAG,2
                                           	GOTO	_00107_DS_
                                           ;	.line	340; "user.h"	Nop();
                                           	nop	
                                           	GOTO	_00105_DS_
                                           _00107_DS_
                                           ;	.line	342; "user.h"	xms--; //  --while()
                                           	MOVAI	0xff
                                           	ADDRA	r0x104F
                                           	JBSET	PFLAG,0
                                           	DECR	r0x104E
                                           ;	.line	346; "user.h"	__endasm;
                                           	;
                                           	clrwdt;
                                           	
                                           	GOTO	_00108_DS_
                                           _00111_DS_
                                           ;	.line	348; "user.h"	}
                                           	RETURN	
                                           ; exit point of _delay_ms
                                           
                                           
                                           ;	code size estimation:
                                           ;	 1678+    0 =  1678 instructions ( 3356 byte)
                                           
                                           	end


MEMORY USAGE MAP ('X' = Used,  '-' = Unused)

0000 : XX-------------- XXXXXXXXXXXXXXXX XXXXXXXXXXXXXXXX XXXXXXXXXXXXXXXX
0040 : XXXXXXXXXXXXXXXX XXXXXXXXXXXXXXXX XXXXXXXXXXXXXXXX XXXXXXXXXXXXXXXX
0080 : XXXXXXXXXXXXXXXX XXXXXXXXXXXXXXXX XXXXXXXXXXXXXXXX XXXXXXXXXXXXXXXX
00C0 : XXXXXXXXXXXXXXXX XXXXXXXXXXXXXXXX XXXXXXXXXXXXXXXX XXXXXXXXXXXXXXXX
0100 : XXXXXXXXXXXXXXXX XXXXXXXXXXXXXXXX XXXXXXXXXXXXXXXX XXXXXXXXXXXXXXXX
0140 : XXXXXXXXXXXXXXXX XXXXXXXXXXXXXXXX XXXXXXXXXXXXXXXX XXXXXXXXXXXXXXXX
0180 : XXXXXXXXXXXXXXXX XXXXXXXXXXXXXXXX XXXXXXXXXXXXXXXX XXXXXXXXXXXXXXXX
01C0 : XXXXXXXXXXXXXXXX XXXXXXXXXXXXXXXX XXXXXXXXXXXXXXXX XXXXXXXXXXXXXXXX
0200 : XXXXXXXXXXXXXXXX XXXXXXXXXXXXXXXX XXXXXXXXXXXXXXXX XXXXXXXXXXXXXXXX
0240 : XXXXXXXXXXXXXXXX XXXXXXXXXXXXXXXX XXXXXXXXXXXXXXXX XXXXXXXXXXXXXXXX
0280 : XXXXXXXXXXXXXXXX XXXXXXXXXXXXXXXX XXXXXXXXXXXXXXXX XXXXXXXXXXXXXXXX
02C0 : XXXXXXXXXXXXXXXX XXXXXXXXXXXXXXXX XXXXXXXXXXXXXXXX XXXXXXXXXXXXXXXX
0300 : XXXXXXXXXXXXXXXX XXXXXXXXXXXXXXXX XXXXXXXXXXXXXXXX XXXXXXXXXXXXXXXX
0340 : XXXXXXXXXXXXXXXX XXXXXXXXXXXXXXXX XXXXXXXXXXXXXXXX XXXXXXXXXXXXXXXX
0380 : XXXXXXXXXXXXXXXX XXXXXXXXXXXXXXXX XXXXXXXXXXXXXXXX XXXXXXXXXXXXXXXX
03C0 : XXXXXXXXXXXXXXXX XXXXXXXXXXXXXXXX XXXXXXXXXXXXXXXX XXXXXXXXXXXXXXXX
0400 : XXXXXXXXXXXXXXXX XXXXXXXXXXXXXXXX XXXXXXXXXXXXXXXX XXXXXXXXXXXXXXXX
0440 : XXXXXXXXXXXXXXXX XXXXXXXXXXXXXXXX XXXXXXXXXXXXXXXX XXXXXXXXXXXXXXXX
0480 : XXXXXXXXXXXXXXXX XXXXXXXXXXXXXXXX XXXXXXXXXXXXXXXX XXXXXXXXXXXXXXXX
04C0 : XXXXXXXXXXXXXXXX XXXXXXXXXXXXXXXX XXXXXXXXXXXXXXXX XXXXXXXXXXXXXXXX
0500 : XXXXXXXXXXXXXXXX XXXXXXXXXXXXXXXX XXXXXXXXXXXXXXXX XXXXXXXXXXXXXXXX
0540 : XXXXXXXXXXXXXXXX XXXXXXXXXXXXXXXX XXXXXXXXXXXXXXXX XXXXXXXXXXXXXXXX
0580 : XXXXXXXXXXXXXXXX XXXXXXXXXXXXXXXX XXXXXXXXXXXXXXXX XXXXXXXXXXXXXXXX
05C0 : XXXXXXXXXXXXXXXX XXXXXXXXXXXXXXXX XXXXXXXXXXXXXXXX XXXXXXXXXXXXXXXX
0600 : XXXXXXXXXXXXXXXX XXXXXXXXXXXXXXXX XXXXXXXXXXXXXXXX XXXXXXXXXXXXXXXX
0640 : XXXXXXXXXXXXXXXX XXXXXXXXXXXXXXXX XXXXXXXXXXXXXXXX XXXXXXXXXXXXXXXX
0680 : XXXXXXXXXXXXXXXX XXXXXXXXXXXXXXXX XXXXXXXXXXXXXXXX XXXXXXXXXXXXXXXX
06C0 : XXXXXXXXXXXXXXXX XXXXXXXXXXXXXXXX XXXXXXXXXXXXXXXX XXXXXXXXXXXXXXXX
0700 : XXXXXXXXXXXXXXXX XXXXXXXXXXXXXXXX XXXXXXXXXXXXXXXX XXXXXXXXXXXXXXXX
0740 : XXXXXXXXXXXXXXXX XXXXXXXXXXXXXXXX XXXXXXXXXXXXXXXX XXXXXXXXXXXXXXXX
0780 : XXXXXXXXXXXXXXXX XXXXXXXXXXXXXXXX XXXXXXXXXXXXXXXX XXXXXXXXXXXXXXXX
07C0 : XXXXXXXXXXXXXXXX XXXXXXXXXXXXXXXX XXXXXXXXXXXXXXXX XXXXXXXXXXXXXXXX
0800 : XXXXXXXXXXXXXXXX XXXXXXXXXXXXXXXX XXXXXXXXXXXXXXXX XXXXXXXXXXXXXXXX
0840 : XXXXXXXXXXXXXXXX XXXXXXXXXXXXXXXX XXXXXXXXXXXXXXXX XXXXXXXXXXXXXXXX
0880 : XXXXXXXXXXXXXXXX XXXXXXXXXXXXXXXX XXXXXXXXXXXXXXXX XXXXXXXXXXXXXXXX
08C0 : XXXXXXXXXXXXXXXX XXXXXXXXXXXXXXXX XXXXXXXXXXXXXXXX XXXXXXXXXXXXXXXX
0900 : XXXXXXXXXXXXXXXX XXXXXXXXXXXXXXXX XXXXXXXXXXXXXXXX XXXXXXXXXXXXXXXX
0940 : XXXXXXXXXXXXXXXX XXXXXXXXXXXXXXXX XXXXXXXXXXXXXXXX XXXXXXXXXXXXXXXX
0980 : XXXXXXXXXXXXXXXX XXXXXXXXXXXXXXXX XXXXXXXXXXXXXXXX XXXXXXXXXXXXXXXX
09C0 : XXXXXXXXXXXXXXXX XXXXXXXXXXXXXXXX XXXXXXXXXXXXXXXX XXXXXXXXXXXXXXXX
0A00 : XXXXXXXXXXXXXXXX XXXXXXXXXXXXXXXX XXXXXXXXXXXXXXXX XXXXXXXXXXXXXXXX
0A40 : XXXXXXXXXXXXXXXX XXXXXXXXXXXXXXXX XXXXXXXXXXXXXXXX XXXXXXXXXXXXXXXX
0A80 : XXXXXXXXXXXXXXXX XXXXXXXXXXXXXXXX XXXXXXXXXXXXXXXX XXXXXXXXXXXXXXXX
0AC0 : XXXXXXXXXXXXXXXX XXXXXXXXXXXXXXXX XXXXXXXXXXXXXXXX XXXXXXXXXXXXXXXX
0B00 : XXXXXXXXXXXXXXXX XXXXXXXXXXXXXXXX XXXXXXXXXXXXXXXX XXXXXXXXXXXXXXXX
0B40 : XXXXXXXXXXXXXXXX XXXXXXXXXXXXXXXX XXXXXXXXXXXXXXXX XXXXXXXXXXXXXXXX
0B80 : XXXXXXXXXXXXXXXX XXXXXXXXXXXXXXXX XXXXXXXXXXXXXXXX XXXXXXXXXXXXXXXX
0BC0 : XXXXXXXXXXXXXXXX XXXXXXXXXXXXXXXX XXXXXXXXXXXXXXXX XXXXXXXXXXXXXXXX
0C00 : XXXXXXXXXXXXXXXX XXXXXXXXXXXXXXXX XXXXXXXXXXXXXXXX XXXXXXXXXXXXXXXX
0C40 : XXXXXXXXXXXXXXXX XXXXXXXXXXXXXXXX XXXXXXXXXXXXXXXX XXXXXXXXXXXXXXXX
0C80 : XXXXXXXXXXXXXXXX XXXXXXXXXXXXXXXX XXXXXXXXXXXXXXXX XXXXXXXXXXXXXXXX
0CC0 : XXXXXXXXXXXXXXXX XXXXXXXXXXXXXXXX XXXXXXXXXXXXXXXX XXXXXXXXXXXXXXXX
0D00 : XXXXXXXXXXXXXXXX XXXXXXXXXXXXXXXX XXXXXXXXXXXXXXXX XXXXXXXXXXXXXXXX
0D40 : XXXXXXXXXXXXXXXX XXXXXXXXXXXXXXXX XXXXXXXXXXXXXXXX XXXXXXXXXXXXXXXX
0D80 : XXXXXXXXXXXXXXXX XXXXXXXXXXXXXXXX XXXXXXXXXXXXXXXX XXXXXXXXXXXXXXXX
0DC0 : XXXXXXXXXXXXXXXX XXXXXXXXXXXXXXXX XXXXXXXXXXXXXXXX XXXXXXXXXXXXXXXX
0E00 : XXXXXXXXXXXXXXXX XXXXXXXXXXXXXXXX XXXXXXXXXXXXXXXX XXXXXXXXXXXXXXXX
0E40 : XXXXXXXXXXXXXXXX XXXXXXXXXXXXXXXX XXXXXXXXXXXXXXXX XXXXXXXXXXXXXXXX
0E80 : XXXXXXXXXXXXXXXX XXXXXXXXXXXXXXXX XXXXXXXXXXXXXXXX XXXXXXXXXXXXXXXX
0EC0 : XXXXXXXXXXXXXXXX XXXXXXXXXXXXXXXX XXXXXXXXXXXXXXXX XXXXXXXXXXXXXXXX
0F00 : XXXXXXXXXXXXXXXX XXXXXXXXXXXXXXXX XXXXXXXXXXXXXXXX XXXXXXXXXXXXXXXX
0F40 : XXXXXXXXXXXXXXXX ---------------- ---------------- ----------------

All other memory blocks unused.

Program Memory Words Used:  1953

